	.text
	.file	"mas_blk_core.c"
                                        // Start of file scope inline assembly
	.section "___kcrctab+blk_dev_write_order_preserved", "a"	
	.weak	__crc_blk_dev_write_order_preserved	
	.long	__crc_blk_dev_write_order_preserved	
	.previous					
	.section "___kcrctab+blk_req_get_order_nr", "a"	
	.weak	__crc_blk_req_get_order_nr	
	.long	__crc_blk_req_get_order_nr	
	.previous					
	.section "___kcrctab+blk_queue_order_enable", "a"	
	.weak	__crc_blk_queue_order_enable	
	.long	__crc_blk_queue_order_enable	
	.previous					
	.section "___kcrctab+blk_queue_query_order_enable", "a"	
	.weak	__crc_blk_queue_query_order_enable	
	.long	__crc_blk_queue_query_order_enable	
	.previous					
	.section "___kcrctab+blk_order_nr_reset", "a"	
	.weak	__crc_blk_order_nr_reset	
	.long	__crc_blk_order_nr_reset	
	.previous					

                                        // End of file scope inline assembly
	.file	1 "/mnt/disk/jenkins/ci/workspace/chipset_pipeline_release/opensource/component_code/vendor/huawei/extra/build/build_script/kirin_kernel_release/kernel/include/linux/lockdep.h"
	.file	2 "/mnt/disk/jenkins/ci/workspace/chipset_pipeline_release/opensource/component_code/vendor/huawei/extra/build/build_script/kirin_kernel_release/kernel/block/mas_blk_core.c"
	.file	3 "/mnt/disk/jenkins/ci/workspace/chipset_pipeline_release/opensource/component_code/vendor/huawei/extra/build/build_script/kirin_kernel_release/kernel/include/linux/export.h"
	.file	4 "/mnt/disk/jenkins/ci/workspace/chipset_pipeline_release/opensource/component_code/vendor/huawei/extra/build/build_script/kirin_kernel_release/kernel/include/linux/blkdev.h"
	.file	5 "/mnt/disk/jenkins/ci/workspace/chipset_pipeline_release/opensource/component_code/vendor/huawei/extra/build/build_script/kirin_kernel_release/kernel/include/linux/kobject_ns.h"
	.file	6 "/mnt/disk/jenkins/ci/workspace/chipset_pipeline_release/opensource/component_code/vendor/huawei/extra/build/build_script/kirin_kernel_release/kernel/include/linux/module.h"
	.file	7 "/mnt/disk/jenkins/ci/workspace/chipset_pipeline_release/opensource/component_code/vendor/huawei/extra/build/build_script/kirin_kernel_release/kernel/include/linux/quota.h"
	.file	8 "/mnt/disk/jenkins/ci/workspace/chipset_pipeline_release/opensource/component_code/vendor/huawei/extra/build/build_script/kirin_kernel_release/kernel/include/linux/hrtimer.h"
	.file	9 "/mnt/disk/jenkins/ci/workspace/chipset_pipeline_release/opensource/component_code/vendor/huawei/extra/build/build_script/kirin_kernel_release/kernel/include/linux/mm.h"
	.file	10 "/mnt/disk/jenkins/ci/workspace/chipset_pipeline_release/opensource/component_code/vendor/huawei/extra/build/build_script/kirin_kernel_release/kernel/include/linux/restart_block.h"
	.file	11 "/mnt/disk/jenkins/ci/workspace/chipset_pipeline_release/opensource/component_code/vendor/huawei/extra/build/build_script/kirin_kernel_release/kernel/include/linux/device.h"
	.file	12 "/mnt/disk/jenkins/ci/workspace/chipset_pipeline_release/opensource/component_code/vendor/huawei/extra/build/build_script/kirin_kernel_release/kernel/include/linux/pm.h"
	.file	13 "/mnt/disk/jenkins/ci/workspace/chipset_pipeline_release/opensource/component_code/vendor/huawei/extra/build/build_script/kirin_kernel_release/kernel/include/linux/fs.h"
	.file	14 "/mnt/disk/jenkins/ci/workspace/chipset_pipeline_release/opensource/component_code/vendor/huawei/extra/build/build_script/kirin_kernel_release/kernel/include/linux/migrate_mode.h"
	.file	15 "/mnt/disk/jenkins/ci/workspace/chipset_pipeline_release/opensource/component_code/vendor/huawei/extra/build/build_script/kirin_kernel_release/kernel/include/linux/memremap.h"
	.file	16 "/mnt/disk/jenkins/ci/workspace/chipset_pipeline_release/opensource/component_code/vendor/huawei/extra/build/build_script/kirin_kernel_release/kernel/include/linux/rcu_sync.h"
	.file	17 "/mnt/disk/jenkins/ci/workspace/chipset_pipeline_release/opensource/component_code/vendor/huawei/extra/build/build_script/kirin_kernel_release/kernel/include/linux/pid.h"
	.file	18 "/mnt/disk/jenkins/ci/workspace/chipset_pipeline_release/opensource/component_code/vendor/huawei/extra/build/build_script/kirin_kernel_release/kernel/include/linux/elevator.h"
	.file	19 "/mnt/disk/jenkins/ci/workspace/chipset_pipeline_release/opensource/component_code/vendor/huawei/extra/build/build_script/kirin_kernel_release/kernel/block/mas_blk.h"
	.file	20 "/mnt/disk/jenkins/ci/workspace/chipset_pipeline_release/opensource/component_code/vendor/huawei/extra/build/build_script/kirin_kernel_release/kernel/include/linux/stddef.h"
	.file	21 "/mnt/disk/jenkins/ci/workspace/chipset_pipeline_release/opensource/component_code/vendor/huawei/extra/build/build_script/kirin_kernel_release/kernel/include/linux/blk_types.h"
	.file	22 "/mnt/disk/jenkins/ci/workspace/chipset_pipeline_release/opensource/component_code/vendor/huawei/extra/build/build_script/kirin_kernel_release/kernel/include/linux/types.h"
	.file	23 "/mnt/disk/jenkins/ci/workspace/chipset_pipeline_release/opensource/component_code/vendor/huawei/extra/build/build_script/kirin_kernel_release/kernel/include/linux/llist.h"
	.file	24 "/mnt/disk/jenkins/ci/workspace/chipset_pipeline_release/opensource/component_code/vendor/huawei/extra/build/build_script/kirin_kernel_release/kernel/include/linux/smp.h"
	.file	25 "/mnt/disk/jenkins/ci/workspace/chipset_pipeline_release/opensource/component_code/vendor/huawei/extra/build/build_script/kirin_kernel_release/kernel/include/asm-generic/int-ll64.h"
	.file	26 "/mnt/disk/jenkins/ci/workspace/chipset_pipeline_release/opensource/component_code/vendor/huawei/extra/build/build_script/kirin_kernel_release/kernel/arch/arm64/include/asm/spinlock_types.h"
	.file	27 "/mnt/disk/jenkins/ci/workspace/chipset_pipeline_release/opensource/component_code/vendor/huawei/extra/build/build_script/kirin_kernel_release/kernel/include/linux/spinlock_types.h"
	.file	28 "/mnt/disk/jenkins/ci/workspace/chipset_pipeline_release/opensource/component_code/vendor/huawei/extra/build/build_script/kirin_kernel_release/kernel/block/blk-mq.h"
	.file	29 "/mnt/disk/jenkins/ci/workspace/chipset_pipeline_release/opensource/component_code/vendor/huawei/extra/build/build_script/kirin_kernel_release/kernel/include/linux/kobject.h"
	.file	30 "/mnt/disk/jenkins/ci/workspace/chipset_pipeline_release/opensource/component_code/vendor/huawei/extra/build/build_script/kirin_kernel_release/kernel/include/uapi/asm-generic/posix_types.h"
	.file	31 "/mnt/disk/jenkins/ci/workspace/chipset_pipeline_release/opensource/component_code/vendor/huawei/extra/build/build_script/kirin_kernel_release/kernel/include/linux/sysfs.h"
	.file	32 "/mnt/disk/jenkins/ci/workspace/chipset_pipeline_release/opensource/component_code/vendor/huawei/extra/build/build_script/kirin_kernel_release/kernel/include/linux/kernfs.h"
	.file	33 "/mnt/disk/jenkins/ci/workspace/chipset_pipeline_release/opensource/component_code/vendor/huawei/extra/build/build_script/kirin_kernel_release/kernel/include/linux/rbtree.h"
	.file	34 "/mnt/disk/jenkins/ci/workspace/chipset_pipeline_release/opensource/component_code/vendor/huawei/extra/build/build_script/kirin_kernel_release/kernel/include/linux/radix-tree.h"
	.file	35 "/mnt/disk/jenkins/ci/workspace/chipset_pipeline_release/opensource/component_code/vendor/huawei/extra/build/build_script/kirin_kernel_release/kernel/include/linux/idr.h"
	.file	36 "/mnt/disk/jenkins/ci/workspace/chipset_pipeline_release/opensource/component_code/vendor/huawei/extra/build/build_script/kirin_kernel_release/kernel/include/linux/seq_file.h"
	.file	37 "/mnt/disk/jenkins/ci/workspace/chipset_pipeline_release/opensource/component_code/vendor/huawei/extra/build/build_script/kirin_kernel_release/kernel/include/asm-generic/atomic-long.h"
	.file	38 "/mnt/disk/jenkins/ci/workspace/chipset_pipeline_release/opensource/component_code/vendor/huawei/extra/build/build_script/kirin_kernel_release/kernel/include/linux/mutex.h"
	.file	39 "/mnt/disk/jenkins/ci/workspace/chipset_pipeline_release/opensource/component_code/vendor/huawei/extra/build/build_script/kirin_kernel_release/kernel/include/linux/osq_lock.h"
	.file	40 "/mnt/disk/jenkins/ci/workspace/chipset_pipeline_release/opensource/component_code/vendor/huawei/extra/build/build_script/kirin_kernel_release/kernel/include/linux/path.h"
	.file	41 "/mnt/disk/jenkins/ci/workspace/chipset_pipeline_release/opensource/component_code/vendor/huawei/extra/build/build_script/kirin_kernel_release/kernel/include/linux/dcache.h"
	.file	42 "/mnt/disk/jenkins/ci/workspace/chipset_pipeline_release/opensource/component_code/vendor/huawei/extra/build/build_script/kirin_kernel_release/kernel/include/linux/seqlock.h"
	.file	43 "/mnt/disk/jenkins/ci/workspace/chipset_pipeline_release/opensource/component_code/vendor/huawei/extra/build/build_script/kirin_kernel_release/kernel/include/linux/list_bl.h"
	.file	44 "/mnt/disk/jenkins/ci/workspace/chipset_pipeline_release/opensource/component_code/vendor/huawei/extra/build/build_script/kirin_kernel_release/kernel/include/linux/uidgid.h"
	.file	45 "/mnt/disk/jenkins/ci/workspace/chipset_pipeline_release/opensource/component_code/vendor/huawei/extra/build/build_script/kirin_kernel_release/kernel/include/linux/delayed_call.h"
	.file	46 "/mnt/disk/jenkins/ci/workspace/chipset_pipeline_release/opensource/component_code/vendor/huawei/extra/build/build_script/kirin_kernel_release/kernel/include/uapi/asm-generic/int-ll64.h"
	.file	47 "/mnt/disk/jenkins/ci/workspace/chipset_pipeline_release/opensource/component_code/vendor/huawei/extra/build/build_script/kirin_kernel_release/kernel/include/uapi/linux/time.h"
	.file	48 "/mnt/disk/jenkins/ci/workspace/chipset_pipeline_release/opensource/component_code/vendor/huawei/extra/build/build_script/kirin_kernel_release/kernel/include/linux/stat.h"
	.file	49 "/mnt/disk/jenkins/ci/workspace/chipset_pipeline_release/opensource/component_code/vendor/huawei/extra/build/build_script/kirin_kernel_release/kernel/include/uapi/linux/fiemap.h"
	.file	50 "/mnt/disk/jenkins/ci/workspace/chipset_pipeline_release/opensource/component_code/vendor/huawei/extra/build/build_script/kirin_kernel_release/kernel/include/linux/completion.h"
	.file	51 "/mnt/disk/jenkins/ci/workspace/chipset_pipeline_release/opensource/component_code/vendor/huawei/extra/build/build_script/kirin_kernel_release/kernel/include/linux/wait.h"
	.file	52 "/mnt/disk/jenkins/ci/workspace/chipset_pipeline_release/opensource/component_code/vendor/huawei/extra/build/build_script/kirin_kernel_release/kernel/include/linux/cfi.h"
	.file	53 "/mnt/disk/jenkins/ci/workspace/chipset_pipeline_release/opensource/component_code/vendor/huawei/extra/build/build_script/kirin_kernel_release/kernel/include/linux/moduleparam.h"
	.file	54 "/mnt/disk/jenkins/ci/workspace/chipset_pipeline_release/opensource/component_code/vendor/huawei/extra/build/build_script/kirin_kernel_release/kernel/arch/arm64/include/asm/extable.h"
	.file	55 "/mnt/disk/jenkins/ci/workspace/chipset_pipeline_release/opensource/component_code/vendor/huawei/extra/build/build_script/kirin_kernel_release/kernel/include/linux/rbtree_latch.h"
	.file	56 "/mnt/disk/jenkins/ci/workspace/chipset_pipeline_release/opensource/component_code/vendor/huawei/extra/build/build_script/kirin_kernel_release/kernel/include/uapi/linux/elf.h"
	.file	57 "/mnt/disk/jenkins/ci/workspace/chipset_pipeline_release/opensource/component_code/vendor/huawei/extra/build/build_script/kirin_kernel_release/kernel/arch/arm64/include/asm/module.h"
	.file	58 "/mnt/disk/jenkins/ci/workspace/chipset_pipeline_release/opensource/component_code/vendor/huawei/extra/build/build_script/kirin_kernel_release/kernel/include/uapi/linux/types.h"
	.file	59 "/mnt/disk/jenkins/ci/workspace/chipset_pipeline_release/opensource/component_code/vendor/huawei/extra/build/build_script/kirin_kernel_release/kernel/include/asm-generic/bug.h"
	.file	60 "/mnt/disk/jenkins/ci/workspace/chipset_pipeline_release/opensource/component_code/vendor/huawei/extra/build/build_script/kirin_kernel_release/kernel/include/linux/tracepoint-defs.h"
	.file	61 "/mnt/disk/jenkins/ci/workspace/chipset_pipeline_release/opensource/component_code/vendor/huawei/extra/build/build_script/kirin_kernel_release/kernel/include/linux/jump_label.h"
	.file	62 "/mnt/disk/jenkins/ci/workspace/chipset_pipeline_release/opensource/component_code/vendor/huawei/extra/build/build_script/kirin_kernel_release/kernel/include/linux/tracepoint.h"
	.file	63 "/mnt/disk/jenkins/ci/workspace/chipset_pipeline_release/opensource/component_code/vendor/huawei/extra/build/build_script/kirin_kernel_release/kernel/include/linux/projid.h"
	.file	64 "/mnt/disk/jenkins/ci/workspace/chipset_pipeline_release/opensource/component_code/vendor/huawei/extra/build/build_script/kirin_kernel_release/kernel/include/linux/time64.h"
	.file	65 "/mnt/disk/jenkins/ci/workspace/chipset_pipeline_release/opensource/component_code/vendor/huawei/extra/build/build_script/kirin_kernel_release/kernel/include/linux/mm_types.h"
	.file	66 "/mnt/disk/jenkins/ci/workspace/chipset_pipeline_release/opensource/component_code/vendor/huawei/extra/build/build_script/kirin_kernel_release/kernel/include/linux/rwsem.h"
	.file	67 "/mnt/disk/jenkins/ci/workspace/chipset_pipeline_release/opensource/component_code/vendor/huawei/extra/build/build_script/kirin_kernel_release/kernel/arch/arm64/include/asm/thread_info.h"
	.file	68 "/mnt/disk/jenkins/ci/workspace/chipset_pipeline_release/opensource/component_code/vendor/huawei/extra/build/build_script/kirin_kernel_release/kernel/include/linux/sched.h"
	.file	69 "/mnt/disk/jenkins/ci/workspace/chipset_pipeline_release/opensource/component_code/vendor/huawei/extra/build/build_script/kirin_kernel_release/kernel/include/linux/cpumask.h"
	.file	70 "/mnt/disk/jenkins/ci/workspace/chipset_pipeline_release/opensource/component_code/vendor/huawei/extra/build/build_script/kirin_kernel_release/kernel/include/linux/timerqueue.h"
	.file	71 "/mnt/disk/jenkins/ci/workspace/chipset_pipeline_release/opensource/component_code/vendor/huawei/extra/build/build_script/kirin_kernel_release/kernel/include/linux/ktime.h"
	.file	72 "/mnt/disk/jenkins/ci/workspace/chipset_pipeline_release/opensource/component_code/vendor/huawei/extra/build/build_script/kirin_kernel_release/kernel/include/linux/plist.h"
	.file	73 "/mnt/disk/jenkins/ci/workspace/chipset_pipeline_release/opensource/component_code/vendor/huawei/extra/build/build_script/kirin_kernel_release/kernel/arch/arm64/include/asm/pgtable-types.h"
	.file	74 "/mnt/disk/jenkins/ci/workspace/chipset_pipeline_release/opensource/component_code/vendor/huawei/extra/build/build_script/kirin_kernel_release/kernel/include/asm-generic/pgtable-nop4d-hack.h"
	.file	75 "/mnt/disk/jenkins/ci/workspace/chipset_pipeline_release/opensource/component_code/vendor/huawei/extra/build/build_script/kirin_kernel_release/kernel/arch/arm64/include/asm/page.h"
	.file	76 "/mnt/disk/jenkins/ci/workspace/chipset_pipeline_release/opensource/component_code/vendor/huawei/extra/build/build_script/kirin_kernel_release/kernel/include/linux/rwlock_types.h"
	.file	77 "/mnt/disk/jenkins/ci/workspace/chipset_pipeline_release/opensource/component_code/vendor/huawei/extra/build/build_script/kirin_kernel_release/kernel/include/linux/mm_types_task.h"
	.file	78 "/mnt/disk/jenkins/ci/workspace/chipset_pipeline_release/opensource/component_code/vendor/huawei/extra/build/build_script/kirin_kernel_release/kernel/arch/arm64/include/asm/mmu.h"
	.file	79 "/mnt/disk/jenkins/ci/workspace/chipset_pipeline_release/opensource/component_code/vendor/huawei/extra/build/build_script/kirin_kernel_release/kernel/include/linux/uprobes.h"
	.file	80 "/mnt/disk/jenkins/ci/workspace/chipset_pipeline_release/opensource/component_code/vendor/huawei/extra/build/build_script/kirin_kernel_release/kernel/include/linux/workqueue.h"
	.file	81 "/mnt/disk/jenkins/ci/workspace/chipset_pipeline_release/opensource/component_code/vendor/huawei/extra/build/build_script/kirin_kernel_release/kernel/arch/arm64/include/asm/compat.h"
	.file	82 "/mnt/disk/jenkins/ci/workspace/chipset_pipeline_release/opensource/component_code/vendor/huawei/extra/build/build_script/kirin_kernel_release/kernel/include/uapi/asm-generic/poll.h"
	.file	83 "/mnt/disk/jenkins/ci/workspace/chipset_pipeline_release/opensource/component_code/vendor/huawei/extra/build/build_script/kirin_kernel_release/kernel/include/linux/cred.h"
	.file	84 "/mnt/disk/jenkins/ci/workspace/chipset_pipeline_release/opensource/component_code/vendor/huawei/extra/build/build_script/kirin_kernel_release/kernel/include/linux/capability.h"
	.file	85 "/mnt/disk/jenkins/ci/workspace/chipset_pipeline_release/opensource/component_code/vendor/huawei/extra/build/build_script/kirin_kernel_release/kernel/include/linux/refcount.h"
	.file	86 "/mnt/disk/jenkins/ci/workspace/chipset_pipeline_release/opensource/component_code/vendor/huawei/extra/build/build_script/kirin_kernel_release/kernel/include/linux/key.h"
	.file	87 "/mnt/disk/jenkins/ci/workspace/chipset_pipeline_release/opensource/component_code/vendor/huawei/extra/build/build_script/kirin_kernel_release/kernel/include/linux/assoc_array.h"
	.file	88 "/mnt/disk/jenkins/ci/workspace/chipset_pipeline_release/opensource/component_code/vendor/huawei/extra/build/build_script/kirin_kernel_release/kernel/include/linux/sched/user.h"
	.file	89 "/mnt/disk/jenkins/ci/workspace/chipset_pipeline_release/opensource/component_code/vendor/huawei/extra/build/build_script/kirin_kernel_release/kernel/include/uapi/asm-generic/signal.h"
	.file	90 "/mnt/disk/jenkins/ci/workspace/chipset_pipeline_release/opensource/component_code/vendor/huawei/extra/build/build_script/kirin_kernel_release/kernel/include/linux/signal_types.h"
	.file	91 "/mnt/disk/jenkins/ci/workspace/chipset_pipeline_release/opensource/component_code/vendor/huawei/extra/build/build_script/kirin_kernel_release/kernel/include/linux/seccomp.h"
	.file	92 "/mnt/disk/jenkins/ci/workspace/chipset_pipeline_release/opensource/component_code/vendor/huawei/extra/build/build_script/kirin_kernel_release/kernel/include/linux/genhd.h"
	.file	93 "/mnt/disk/jenkins/ci/workspace/chipset_pipeline_release/opensource/component_code/vendor/huawei/extra/build/build_script/kirin_kernel_release/kernel/include/linux/pm_wakeup.h"
	.file	94 "/mnt/disk/jenkins/ci/workspace/chipset_pipeline_release/opensource/component_code/vendor/huawei/extra/build/build_script/kirin_kernel_release/kernel/include/linux/timer.h"
	.file	95 "/mnt/disk/jenkins/ci/workspace/chipset_pipeline_release/opensource/component_code/vendor/huawei/extra/build/build_script/kirin_kernel_release/kernel/include/linux/pinctrl/devinfo.h"
	.file	96 "/mnt/disk/jenkins/ci/workspace/chipset_pipeline_release/opensource/component_code/vendor/huawei/extra/build/build_script/kirin_kernel_release/kernel/arch/arm64/include/asm/device.h"
	.file	97 "/mnt/disk/jenkins/ci/workspace/chipset_pipeline_release/opensource/component_code/vendor/huawei/extra/build/build_script/kirin_kernel_release/kernel/include/linux/klist.h"
	.file	98 "/mnt/disk/jenkins/ci/workspace/chipset_pipeline_release/opensource/component_code/vendor/huawei/extra/build/build_script/kirin_kernel_release/kernel/include/linux/kref.h"
	.file	99 "/mnt/disk/jenkins/ci/workspace/chipset_pipeline_release/opensource/component_code/vendor/huawei/extra/build/build_script/kirin_kernel_release/kernel/include/linux/percpu-refcount.h"
	.file	100 "/mnt/disk/jenkins/ci/workspace/chipset_pipeline_release/opensource/component_code/vendor/huawei/extra/build/build_script/kirin_kernel_release/kernel/include/linux/backing-dev-defs.h"
	.file	101 "/mnt/disk/jenkins/ci/workspace/chipset_pipeline_release/opensource/component_code/vendor/huawei/extra/build/build_script/kirin_kernel_release/kernel/include/linux/percpu_counter.h"
	.file	102 "/mnt/disk/jenkins/ci/workspace/chipset_pipeline_release/opensource/component_code/vendor/huawei/extra/build/build_script/kirin_kernel_release/kernel/include/linux/flex_proportions.h"
	.file	103 "/mnt/disk/jenkins/ci/workspace/chipset_pipeline_release/opensource/component_code/vendor/huawei/extra/build/build_script/kirin_kernel_release/kernel/include/linux/bvec.h"
	.file	104 "/mnt/disk/jenkins/ci/workspace/chipset_pipeline_release/opensource/component_code/vendor/huawei/extra/build/build_script/kirin_kernel_release/kernel/include/linux/iocontext.h"
	.file	105 "/mnt/disk/jenkins/ci/workspace/chipset_pipeline_release/opensource/component_code/vendor/huawei/extra/build/build_script/kirin_kernel_release/kernel/include/linux/bio.h"
	.file	106 "/mnt/disk/jenkins/ci/workspace/chipset_pipeline_release/opensource/component_code/vendor/huawei/extra/build/build_script/kirin_kernel_release/kernel/include/linux/mempool.h"
	.file	107 "/mnt/disk/jenkins/ci/workspace/chipset_pipeline_release/opensource/component_code/vendor/huawei/extra/build/build_script/kirin_kernel_release/kernel/include/uapi/asm-generic/siginfo.h"
	.file	108 "/mnt/disk/jenkins/ci/workspace/chipset_pipeline_release/opensource/component_code/vendor/huawei/extra/build/build_script/kirin_kernel_release/kernel/include/linux/task_io_accounting.h"
	.file	109 "/mnt/disk/jenkins/ci/workspace/chipset_pipeline_release/opensource/component_code/vendor/huawei/extra/build/build_script/kirin_kernel_release/kernel/include/linux/nodemask.h"
	.file	110 "/mnt/disk/jenkins/ci/workspace/chipset_pipeline_release/opensource/component_code/vendor/huawei/extra/build/build_script/kirin_kernel_release/kernel/include/linux/compat.h"
	.file	111 "/mnt/disk/jenkins/ci/workspace/chipset_pipeline_release/opensource/component_code/vendor/huawei/extra/build/build_script/kirin_kernel_release/kernel/arch/arm64/include/asm/processor.h"
	.file	112 "/mnt/disk/jenkins/ci/workspace/chipset_pipeline_release/opensource/component_code/vendor/huawei/extra/build/build_script/kirin_kernel_release/kernel/arch/arm64/include/uapi/asm/ptrace.h"
	.file	113 "/mnt/disk/jenkins/ci/workspace/chipset_pipeline_release/opensource/component_code/vendor/huawei/extra/build/build_script/kirin_kernel_release/kernel/arch/arm64/include/asm/fpsimd.h"
	.file	114 "/mnt/disk/jenkins/ci/workspace/chipset_pipeline_release/opensource/component_code/vendor/huawei/extra/build/build_script/kirin_kernel_release/kernel/include/linux/uio.h"
	.file	115 "/mnt/disk/jenkins/ci/workspace/chipset_pipeline_release/opensource/component_code/vendor/huawei/extra/build/build_script/kirin_kernel_release/kernel/include/uapi/linux/uio.h"
	.file	116 "/mnt/disk/jenkins/ci/workspace/chipset_pipeline_release/opensource/component_code/vendor/huawei/extra/build/build_script/kirin_kernel_release/kernel/include/linux/mmzone.h"
	.file	117 "/mnt/disk/jenkins/ci/workspace/chipset_pipeline_release/opensource/component_code/vendor/huawei/extra/build/build_script/kirin_kernel_release/kernel/include/linux/errseq.h"
	.file	118 "/mnt/disk/jenkins/ci/workspace/chipset_pipeline_release/opensource/component_code/vendor/huawei/extra/build/build_script/kirin_kernel_release/kernel/include/linux/ioport.h"
	.file	119 "/mnt/disk/jenkins/ci/workspace/chipset_pipeline_release/opensource/component_code/vendor/huawei/extra/build/build_script/kirin_kernel_release/kernel/include/linux/shrinker.h"
	.file	120 "/mnt/disk/jenkins/ci/workspace/chipset_pipeline_release/opensource/component_code/vendor/huawei/extra/build/build_script/kirin_kernel_release/kernel/include/linux/percpu-rwsem.h"
	.file	121 "/mnt/disk/jenkins/ci/workspace/chipset_pipeline_release/opensource/component_code/vendor/huawei/extra/build/build_script/kirin_kernel_release/kernel/include/linux/rcuwait.h"
	.file	122 "/mnt/disk/jenkins/ci/workspace/chipset_pipeline_release/opensource/component_code/vendor/huawei/extra/build/build_script/kirin_kernel_release/kernel/include/linux/uuid.h"
	.file	123 "/mnt/disk/jenkins/ci/workspace/chipset_pipeline_release/opensource/component_code/vendor/huawei/extra/build/build_script/kirin_kernel_release/kernel/include/linux/list_lru.h"
	.file	124 "/mnt/disk/jenkins/ci/workspace/chipset_pipeline_release/opensource/component_code/vendor/huawei/extra/build/build_script/kirin_kernel_release/kernel/include/linux/poll.h"
	.file	125 "/mnt/disk/jenkins/ci/workspace/chipset_pipeline_release/opensource/component_code/vendor/huawei/extra/build/build_script/kirin_kernel_release/kernel/include/linux/nfs_fs_i.h"
	.file	126 "/mnt/disk/jenkins/ci/workspace/chipset_pipeline_release/opensource/component_code/vendor/huawei/extra/build/build_script/kirin_kernel_release/kernel/include/linux/lockref.h"
	.file	127 "/mnt/disk/jenkins/ci/workspace/chipset_pipeline_release/opensource/component_code/vendor/huawei/extra/build/build_script/kirin_kernel_release/kernel/include/linux/blk-mq.h"
	.file	128 "/mnt/disk/jenkins/ci/workspace/chipset_pipeline_release/opensource/component_code/vendor/huawei/extra/build/build_script/kirin_kernel_release/kernel/block/blk.h"
	.file	129 "/mnt/disk/jenkins/ci/workspace/chipset_pipeline_release/opensource/component_code/vendor/huawei/extra/build/build_script/kirin_kernel_release/kernel/include/linux/sbitmap.h"
	.file	130 "/mnt/disk/jenkins/ci/workspace/chipset_pipeline_release/opensource/component_code/vendor/huawei/extra/build/build_script/kirin_kernel_release/kernel/block/blk-mq-tag.h"
	.file	131 "/mnt/disk/jenkins/ci/workspace/chipset_pipeline_release/opensource/component_code/vendor/huawei/extra/build/build_script/kirin_kernel_release/kernel/include/linux/notifier.h"
	.file	132 "/mnt/disk/jenkins/ci/workspace/chipset_pipeline_release/opensource/component_code/vendor/huawei/extra/build/build_script/kirin_kernel_release/kernel/include/linux/srcutree.h"
	.file	133 "/mnt/disk/jenkins/ci/workspace/chipset_pipeline_release/opensource/component_code/vendor/huawei/extra/build/build_script/kirin_kernel_release/kernel/include/linux/rcu_segcblist.h"
	.file	134 "/mnt/disk/jenkins/ci/workspace/chipset_pipeline_release/opensource/component_code/vendor/huawei/extra/build/build_script/kirin_kernel_release/kernel/block/blk-stat.h"
	.file	135 "/mnt/disk/jenkins/ci/workspace/chipset_pipeline_release/opensource/component_code/vendor/huawei/extra/build/build_script/kirin_kernel_release/kernel/include/linux/bsg.h"
	.section	.text.mas_blk_get_lld,"ax",@progbits
	.hidden	mas_blk_get_lld         // -- Begin function mas_blk_get_lld
	.globl	mas_blk_get_lld
	.p2align	2
	.type	mas_blk_get_lld,@function
mas_blk_get_lld:                        // @mas_blk_get_lld
.Lfunc_begin0:
	.loc	2 42 0                  // kernel/block/mas_blk_core.c:42:0
	.cfi_sections .debug_frame
	.cfi_startproc
// %bb.0:
	//DEBUG_VALUE: mas_blk_get_lld:q <- $x0
	//DEBUG_VALUE: mas_blk_get_lld:q <- $x0
	.loc	2 43 6 prologue_end     // kernel/block/mas_blk_core.c:43:6
	ldr	x8, [x0, #280]
.Ltmp0:
	.loc	2 43 6 is_stmt 0        // kernel/block/mas_blk_core.c:43:6
	cbz	x8, .LBB0_3
.Ltmp1:
// %bb.1:
	//DEBUG_VALUE: mas_blk_get_lld:q <- $x0
	.loc	2 44 14 is_stmt 1       // kernel/block/mas_blk_core.c:44:14
	ldr	x8, [x0, #2720]
	.loc	2 44 11 is_stmt 0       // kernel/block/mas_blk_core.c:44:11
	add	x9, x0, #1768           // =1768
	add	x10, x8, #16            // =16
.Ltmp2:
.LBB0_2:
	//DEBUG_VALUE: mas_blk_get_lld:q <- $x0
	.loc	2 0 0                   // kernel/block/mas_blk_core.c:0:0
	cmp	x8, #0                  // =0
	csel	x0, x9, x10, eq
.Ltmp3:
	.loc	2 48 1 is_stmt 1        // kernel/block/mas_blk_core.c:48:1
	ret
.LBB0_3:
.Ltmp4:
	//DEBUG_VALUE: mas_blk_get_lld:q <- $x0
	.loc	2 46 14                 // kernel/block/mas_blk_core.c:46:14
	ldr	x8, [x0, #672]
	.loc	2 46 11 is_stmt 0       // kernel/block/mas_blk_core.c:46:11
	add	x9, x0, #1768           // =1768
	add	x10, x8, #88            // =88
	b	.LBB0_2
.Ltmp5:
.Lfunc_end0:
	.size	mas_blk_get_lld, .Lfunc_end0-mas_blk_get_lld
	.cfi_endproc
                                        // -- End function
	.section	.text.mas_blk_get_queue_by_lld,"ax",@progbits
	.hidden	mas_blk_get_queue_by_lld // -- Begin function mas_blk_get_queue_by_lld
	.globl	mas_blk_get_queue_by_lld
	.p2align	2
	.type	mas_blk_get_queue_by_lld,@function
mas_blk_get_queue_by_lld:               // @mas_blk_get_queue_by_lld
.Lfunc_begin1:
	.loc	2 51 0 is_stmt 1        // kernel/block/mas_blk_core.c:51:0
	.cfi_startproc
// %bb.0:
	//DEBUG_VALUE: mas_blk_get_queue_by_lld:lld <- $x0
	//DEBUG_VALUE: mas_blk_get_queue_by_lld:lld <- $x0
	//DEBUG_VALUE: mas_blk_get_queue_by_lld:tag <- 0
	//DEBUG_VALUE: mas_blk_get_queue_by_lld:tag_set <- 0
	.loc	2 54 15 prologue_end    // kernel/block/mas_blk_core.c:54:15
	ldr	w8, [x0, #4]
	.loc	2 54 2 is_stmt 0        // kernel/block/mas_blk_core.c:54:2
	cmp	w8, #2                  // =2
	b.eq	.LBB1_4
.Ltmp6:
// %bb.1:
	//DEBUG_VALUE: mas_blk_get_queue_by_lld:lld <- $x0
	cmp	w8, #1                  // =1
	b.eq	.LBB1_5
.Ltmp7:
// %bb.2:
	//DEBUG_VALUE: mas_blk_get_queue_by_lld:lld <- $x0
	cbnz	w8, .LBB1_6
.Ltmp8:
// %bb.3:
	//DEBUG_VALUE: mas_blk_get_queue_by_lld:lld <- $x0
	.loc	2 56 40 is_stmt 1       // kernel/block/mas_blk_core.c:56:40
	ldr	x0, [x0, #8]
.Ltmp9:
	.loc	2 70 1                  // kernel/block/mas_blk_core.c:70:1
	ret
.LBB1_4:
.Ltmp10:
	//DEBUG_VALUE: mas_blk_get_queue_by_lld:lld <- $x0
	//DEBUG_VALUE: mas_blk_get_queue_by_lld:tag_set <- undef
	//DEBUG_VALUE: __mptr <- undef
	.loc	2 62 44                 // kernel/block/mas_blk_core.c:62:44
	ldr	x8, [x0, #8]
.Ltmp11:
	//DEBUG_VALUE: mas_blk_get_queue_by_lld:tag_set <- $x8
	.loc	2 63 10                 // kernel/block/mas_blk_core.c:63:10
	ldr	x8, [x8, #560]
.Ltmp12:
	//DEBUG_VALUE: __mptr <- $x8
	.loc	2 0 0 is_stmt 0         // kernel/block/mas_blk_core.c:0:0
	sub	x0, x8, #2728           // =2728
.Ltmp13:
	.loc	2 70 1 is_stmt 1        // kernel/block/mas_blk_core.c:70:1
	ret
.Ltmp14:
.LBB1_5:
	//DEBUG_VALUE: mas_blk_get_queue_by_lld:lld <- $x0
	//DEBUG_VALUE: mas_blk_get_queue_by_lld:tag <- undef
	//DEBUG_VALUE: __mptr <- undef
	.loc	2 58 39                 // kernel/block/mas_blk_core.c:58:39
	ldr	x8, [x0, #8]
.Ltmp15:
	//DEBUG_VALUE: mas_blk_get_queue_by_lld:tag <- $x8
	.loc	2 59 10                 // kernel/block/mas_blk_core.c:59:10
	ldr	x8, [x8, #80]
.Ltmp16:
	//DEBUG_VALUE: __mptr <- $x8
	.loc	2 0 0 is_stmt 0         // kernel/block/mas_blk_core.c:0:0
	sub	x0, x8, #2728           // =2728
.Ltmp17:
	.loc	2 70 1 is_stmt 1        // kernel/block/mas_blk_core.c:70:1
	ret
.Ltmp18:
.LBB1_6:
	//DEBUG_VALUE: mas_blk_get_queue_by_lld:lld <- $x0
	.loc	2 0 0 is_stmt 0         // kernel/block/mas_blk_core.c:0:0
	mov	x0, xzr
.Ltmp19:
	.loc	2 70 1                  // kernel/block/mas_blk_core.c:70:1
	ret
.Ltmp20:
.Lfunc_end1:
	.size	mas_blk_get_queue_by_lld, .Lfunc_end1-mas_blk_get_queue_by_lld
	.cfi_endproc
                                        // -- End function
	.section	.text.blk_dio_ck,"ax",@progbits
	.hidden	blk_dio_ck              // -- Begin function blk_dio_ck
	.globl	blk_dio_ck
	.p2align	2
	.type	blk_dio_ck,@function
blk_dio_ck:                             // @blk_dio_ck
.Lfunc_begin2:
	.loc	2 127 0 is_stmt 1       // kernel/block/mas_blk_core.c:127:0
	.cfi_startproc
// %bb.0:
	//DEBUG_VALUE: blk_dio_ck:target_disk <- $x0
	//DEBUG_VALUE: blk_dio_ck:dio_start <- $x1
	//DEBUG_VALUE: blk_dio_ck:dio_op <- $w2
	//DEBUG_VALUE: blk_dio_ck:dio_page_count <- $w3
	//DEBUG_VALUE: blk_dio_ck:dio_op <- $w2
	//DEBUG_VALUE: blk_dio_ck:target_disk <- $x0
	str	x21, [sp, #-48]!        // 8-byte Folded Spill
	stp	x20, x19, [sp, #16]     // 16-byte Folded Spill
	stp	x29, x30, [sp, #32]     // 16-byte Folded Spill
	add	x29, sp, #32            // =32
	.cfi_def_cfa w29, 16
	.cfi_offset w30, -8
	.cfi_offset w29, -16
	.cfi_offset w19, -24
	.cfi_offset w20, -32
	.cfi_offset w21, -48
.Ltmp21:
	.loc	2 128 6 prologue_end    // kernel/block/mas_blk_core.c:128:6
	cbz	x0, .LBB2_13
.Ltmp22:
// %bb.1:
	//DEBUG_VALUE: blk_dio_ck:dio_page_count <- $w3
	//DEBUG_VALUE: blk_dio_ck:dio_op <- $w2
	//DEBUG_VALUE: blk_dio_ck:dio_start <- $x1
	//DEBUG_VALUE: blk_dio_ck:target_disk <- $x0
	ldr	x8, [x0, #1016]
.Ltmp23:
	//DEBUG_VALUE: mas_blk_get_lld:q <- $x8
	//DEBUG_VALUE: mas_blk_get_lld:q <- $x8
	.loc	2 128 6 is_stmt 0       // kernel/block/mas_blk_core.c:128:6
	cbz	x8, .LBB2_13
.Ltmp24:
// %bb.2:
	//DEBUG_VALUE: blk_dio_ck:dio_page_count <- $w3
	//DEBUG_VALUE: blk_dio_ck:dio_op <- $w2
	//DEBUG_VALUE: blk_dio_ck:dio_start <- $x1
	//DEBUG_VALUE: blk_dio_ck:target_disk <- $x0
	.loc	2 0 6                   // kernel/block/mas_blk_core.c:0:6
	mov	w19, w3
.Ltmp25:
	//DEBUG_VALUE: blk_dio_ck:dio_page_count <- $w19
	mov	x20, x1
.Ltmp26:
	//DEBUG_VALUE: blk_dio_ck:dio_start <- $x20
	.loc	2 131 6 is_stmt 1       // kernel/block/mas_blk_core.c:131:6
	cmp	w2, #1                  // =1
	b.eq	.LBB2_7
.Ltmp27:
// %bb.3:
	//DEBUG_VALUE: blk_dio_ck:dio_start <- $x20
	//DEBUG_VALUE: blk_dio_ck:dio_page_count <- $w19
	//DEBUG_VALUE: blk_dio_ck:dio_op <- $w2
	//DEBUG_VALUE: blk_dio_ck:target_disk <- $x0
	cbnz	w2, .LBB2_13
.Ltmp28:
// %bb.4:
	//DEBUG_VALUE: blk_dio_ck:dio_start <- $x20
	//DEBUG_VALUE: blk_dio_ck:dio_page_count <- $w19
	//DEBUG_VALUE: blk_dio_ck:dio_op <- $w2
	//DEBUG_VALUE: blk_dio_ck:target_disk <- $x0
	.loc	2 43 6                  // kernel/block/mas_blk_core.c:43:6
	ldr	x9, [x8, #280]
.Ltmp29:
	.loc	2 43 6 is_stmt 0        // kernel/block/mas_blk_core.c:43:6
	cbz	x9, .LBB2_14
.Ltmp30:
// %bb.5:
	//DEBUG_VALUE: blk_dio_ck:dio_start <- $x20
	//DEBUG_VALUE: blk_dio_ck:dio_page_count <- $w19
	//DEBUG_VALUE: blk_dio_ck:dio_op <- $w2
	//DEBUG_VALUE: blk_dio_ck:target_disk <- $x0
	.loc	2 44 14 is_stmt 1       // kernel/block/mas_blk_core.c:44:14
	ldr	x9, [x8, #2720]
	.loc	2 44 11 is_stmt 0       // kernel/block/mas_blk_core.c:44:11
	add	x8, x8, #1768           // =1768
	add	x10, x9, #16            // =16
.Ltmp31:
.LBB2_6:
	//DEBUG_VALUE: blk_dio_ck:dio_start <- $x20
	//DEBUG_VALUE: blk_dio_ck:dio_page_count <- $w19
	//DEBUG_VALUE: blk_dio_ck:dio_op <- $w2
	//DEBUG_VALUE: blk_dio_ck:target_disk <- $x0
	.loc	2 0 0                   // kernel/block/mas_blk_core.c:0:0
	cmp	x9, #0                  // =0
	csel	x8, x8, x10, eq
.Ltmp32:
	.loc	2 132 54 is_stmt 1      // kernel/block/mas_blk_core.c:132:54
	ldrsw	x21, [x8, #440]
.Ltmp33:
	//DEBUG_VALUE: blk_dio_do_vl:rate <- 3906
	//DEBUG_VALUE: blk_dio_do_vl:dio_page_count <- $w19
	//DEBUG_VALUE: blk_dio_do_vl:dio_start <- $x20
	//DEBUG_VALUE: blk_dio_do_vl:target_v <- $w21
	.loc	2 110 6                 // kernel/block/mas_blk_core.c:110:6
	cbnz	w21, .LBB2_10
	b	.LBB2_13
.Ltmp34:
.LBB2_7:
	//DEBUG_VALUE: blk_dio_ck:dio_start <- $x20
	//DEBUG_VALUE: blk_dio_ck:dio_page_count <- $w19
	//DEBUG_VALUE: blk_dio_ck:dio_op <- $w2
	//DEBUG_VALUE: blk_dio_ck:target_disk <- $x0
	.loc	2 43 6                  // kernel/block/mas_blk_core.c:43:6
	ldr	x9, [x8, #280]
.Ltmp35:
	.loc	2 43 6 is_stmt 0        // kernel/block/mas_blk_core.c:43:6
	cbz	x9, .LBB2_15
.Ltmp36:
// %bb.8:
	//DEBUG_VALUE: blk_dio_ck:dio_start <- $x20
	//DEBUG_VALUE: blk_dio_ck:dio_page_count <- $w19
	//DEBUG_VALUE: blk_dio_ck:dio_op <- $w2
	//DEBUG_VALUE: blk_dio_ck:target_disk <- $x0
	.loc	2 44 14 is_stmt 1       // kernel/block/mas_blk_core.c:44:14
	ldr	x9, [x8, #2720]
	.loc	2 44 11 is_stmt 0       // kernel/block/mas_blk_core.c:44:11
	add	x8, x8, #1768           // =1768
	add	x10, x9, #16            // =16
.Ltmp37:
.LBB2_9:
	//DEBUG_VALUE: blk_dio_ck:dio_start <- $x20
	//DEBUG_VALUE: blk_dio_ck:dio_page_count <- $w19
	//DEBUG_VALUE: blk_dio_ck:dio_op <- $w2
	//DEBUG_VALUE: blk_dio_ck:target_disk <- $x0
	.loc	2 0 0                   // kernel/block/mas_blk_core.c:0:0
	cmp	x9, #0                  // =0
	csel	x8, x8, x10, eq
.Ltmp38:
	.loc	2 135 54 is_stmt 1      // kernel/block/mas_blk_core.c:135:54
	ldrsw	x21, [x8, #444]
.Ltmp39:
	//DEBUG_VALUE: blk_dio_do_vl:rate <- 3906
	//DEBUG_VALUE: blk_dio_do_vl:dio_page_count <- $w19
	//DEBUG_VALUE: blk_dio_do_vl:dio_start <- $x20
	//DEBUG_VALUE: blk_dio_do_vl:target_v <- $w21
	.loc	2 110 6                 // kernel/block/mas_blk_core.c:110:6
	cbz	w21, .LBB2_13
.Ltmp40:
.LBB2_10:
	//DEBUG_VALUE: blk_dio_ck:dio_start <- $x20
	//DEBUG_VALUE: blk_dio_ck:dio_page_count <- $w19
	//DEBUG_VALUE: blk_dio_ck:dio_op <- $w2
	//DEBUG_VALUE: blk_dio_ck:target_disk <- $x0
	//DEBUG_VALUE: blk_dio_do_vl:target_lat <- undef
	.loc	2 0 0 is_stmt 0         // kernel/block/mas_blk_core.c:0:0
	bl	ktime_get
.Ltmp41:
	//DEBUG_VALUE: ktime_us_delta:earlier <- $x20
	//DEBUG_VALUE: ktime_us_delta:later <- $x0
	sub	x8, x0, x20
.Ltmp42:
	//DEBUG_VALUE: ktime_divns:div <- 1000
	//DEBUG_VALUE: blk_dio_do_vl:real_lat <- [DW_OP_constu 1000, DW_OP_div, DW_OP_stack_value] $x8
	//DEBUG_VALUE: ktime_divns:kt <- $x8
	//DEBUG_VALUE: ktime_to_us:kt <- $x8
	cmn	x8, #999                // =999
	b.lt	.LBB2_13
.Ltmp43:
// %bb.11:
	//DEBUG_VALUE: blk_dio_do_vl:real_lat <- [DW_OP_constu 1000, DW_OP_div, DW_OP_stack_value] $x8
	//DEBUG_VALUE: blk_dio_ck:dio_start <- $x20
	//DEBUG_VALUE: blk_dio_ck:dio_page_count <- $w19
	mov	x9, #63439
	movk	x9, #58195, lsl #16
	movk	x9, #39845, lsl #32
	movk	x9, #8388, lsl #48
	mov	w10, #3906
	smulh	x8, x8, x9
.Ltmp44:
	smull	x9, w19, w10
	asr	x10, x8, #7
	add	x8, x10, x8, lsr #63
.Ltmp45:
	//DEBUG_VALUE: blk_dio_do_vl:real_lat <- $x8
	sdiv	x9, x9, x21
.Ltmp46:
	//DEBUG_VALUE: blk_dio_do_vl:target_lat <- $x9
	sub	x0, x9, x8
.Ltmp47:
	//DEBUG_VALUE: blk_dio_do_vl:target_lat <- $x0
	cmp	x0, #1                  // =1
	b.lt	.LBB2_13
.Ltmp48:
// %bb.12:
	//DEBUG_VALUE: blk_dio_do_vl:target_lat <- $x0
	//DEBUG_VALUE: blk_dio_do_vl:real_lat <- [DW_OP_constu 1000, DW_OP_div, DW_OP_stack_value] $x8
	//DEBUG_VALUE: blk_dio_ck:dio_start <- $x20
	//DEBUG_VALUE: blk_dio_ck:dio_page_count <- $w19
	bl	__udelay
.Ltmp49:
.LBB2_13:
	.loc	2 137 1 is_stmt 1       // kernel/block/mas_blk_core.c:137:1
	ldp	x29, x30, [sp, #32]     // 16-byte Folded Reload
	ldp	x20, x19, [sp, #16]     // 16-byte Folded Reload
	ldr	x21, [sp], #48          // 8-byte Folded Reload
	ret
.LBB2_14:
.Ltmp50:
	//DEBUG_VALUE: blk_dio_ck:dio_start <- $x20
	//DEBUG_VALUE: blk_dio_ck:dio_page_count <- $w19
	//DEBUG_VALUE: blk_dio_ck:dio_op <- $w2
	//DEBUG_VALUE: blk_dio_ck:target_disk <- $x0
	.loc	2 46 14                 // kernel/block/mas_blk_core.c:46:14
	ldr	x9, [x8, #672]
	.loc	2 46 11 is_stmt 0       // kernel/block/mas_blk_core.c:46:11
	add	x8, x8, #1768           // =1768
	add	x10, x9, #88            // =88
	b	.LBB2_6
.Ltmp51:
.LBB2_15:
	//DEBUG_VALUE: blk_dio_ck:dio_start <- $x20
	//DEBUG_VALUE: blk_dio_ck:dio_page_count <- $w19
	//DEBUG_VALUE: blk_dio_ck:dio_op <- $w2
	//DEBUG_VALUE: blk_dio_ck:target_disk <- $x0
	.loc	2 46 14                 // kernel/block/mas_blk_core.c:46:14
	ldr	x9, [x8, #672]
	.loc	2 46 11                 // kernel/block/mas_blk_core.c:46:11
	add	x8, x8, #1768           // =1768
	add	x10, x9, #88            // =88
	b	.LBB2_9
.Ltmp52:
.Lfunc_end2:
	.size	blk_dio_ck, .Lfunc_end2-blk_dio_ck
	.cfi_endproc
                                        // -- End function
	.section	.text.blk_mq_tagset_vl_setup,"ax",@progbits
	.hidden	blk_mq_tagset_vl_setup  // -- Begin function blk_mq_tagset_vl_setup
	.globl	blk_mq_tagset_vl_setup
	.p2align	2
	.type	blk_mq_tagset_vl_setup,@function
blk_mq_tagset_vl_setup:                 // @blk_mq_tagset_vl_setup
.Lfunc_begin3:
	.loc	2 141 0 is_stmt 1       // kernel/block/mas_blk_core.c:141:0
	.cfi_startproc
// %bb.0:
	//DEBUG_VALUE: blk_mq_tagset_vl_setup:tag_set <- $x0
	//DEBUG_VALUE: blk_mq_tagset_vl_setup:device_capacity <- $x1
	//DEBUG_VALUE: blk_mq_tagset_vl_setup:device_capacity <- $x1
	lsr	x8, x1, #28
	mov	w9, #500
	mov	w10, #300
	cmp	x8, #0                  // =0
	csel	w8, w10, w9, eq
.Ltmp53:
	//DEBUG_VALUE: blk_mq_tagset_vl_setup:sqr_bw <- 0
	//DEBUG_VALUE: blk_mq_tagset_vl_setup:sqw_bw <- $w8
	//DEBUG_VALUE: blk_mq_tagset_vl_setup:tag_set <- $x0
	.loc	2 152 26 prologue_end   // kernel/block/mas_blk_core.c:152:26
	str	wzr, [x0, #456]
	.loc	2 153 26                // kernel/block/mas_blk_core.c:153:26
	str	w8, [x0, #460]
	.loc	2 154 1                 // kernel/block/mas_blk_core.c:154:1
	ret
.Ltmp54:
.Lfunc_end3:
	.size	blk_mq_tagset_vl_setup, .Lfunc_end3-blk_mq_tagset_vl_setup
	.cfi_endproc
                                        // -- End function
	.section	.text.mas_blk_queue_usr_ctrl_set,"ax",@progbits
	.hidden	mas_blk_queue_usr_ctrl_set // -- Begin function mas_blk_queue_usr_ctrl_set
	.globl	mas_blk_queue_usr_ctrl_set
	.p2align	2
	.type	mas_blk_queue_usr_ctrl_set,@function
mas_blk_queue_usr_ctrl_set:             // @mas_blk_queue_usr_ctrl_set
.Lfunc_begin4:
	.loc	2 183 0                 // kernel/block/mas_blk_core.c:183:0
	.cfi_startproc
// %bb.0:
	//DEBUG_VALUE: mas_blk_queue_usr_ctrl_set:q <- $x0
	//DEBUG_VALUE: mas_blk_queue_usr_ctrl_set:q <- $x0
	stp	x29, x30, [sp, #-16]!   // 16-byte Folded Spill
	mov	x29, sp
	.cfi_def_cfa w29, 16
	.cfi_offset w30, -8
	.cfi_offset w29, -16
.Ltmp55:
	.loc	2 184 19 prologue_end   // kernel/block/mas_blk_core.c:184:19
	ldr	x8, [x0, #1512]
	mov	w9, #28570
	movk	w9, #4, lsl #16
.Ltmp56:
	.loc	2 184 6 is_stmt 0       // kernel/block/mas_blk_core.c:184:6
	cmp	x8, x9
	b.ne	.LBB4_2
.Ltmp57:
// %bb.1:
	//DEBUG_VALUE: mas_blk_queue_usr_ctrl_set:q <- $x0
	.loc	2 0 6                   // kernel/block/mas_blk_core.c:0:6
	mov	w8, #100
.Ltmp58:
	.loc	2 185 21 is_stmt 1      // kernel/block/mas_blk_core.c:185:21
	str	x8, [x0, #1696]
	.loc	2 187 4                 // kernel/block/mas_blk_core.c:187:4
	adrp	x8, jiffies
	ldr	x8, [x8, :lo12:jiffies]
	mov	w9, #48032
	movk	w9, #13, lsl #16
	.loc	2 186 27                // kernel/block/mas_blk_core.c:186:27
	add	x0, x0, #1704           // =1704
.Ltmp59:
	.loc	2 187 12                // kernel/block/mas_blk_core.c:187:12
	add	x1, x8, x9
	.loc	2 186 3                 // kernel/block/mas_blk_core.c:186:3
	bl	mod_timer
.Ltmp60:
	.loc	2 193 1                 // kernel/block/mas_blk_core.c:193:1
	ldp	x29, x30, [sp], #16     // 16-byte Folded Reload
	ret
.LBB4_2:
.Ltmp61:
	//DEBUG_VALUE: mas_blk_queue_usr_ctrl_set:q <- $x0
	.loc	2 190 21                // kernel/block/mas_blk_core.c:190:21
	str	xzr, [x0, #1696]
	.loc	2 191 32                // kernel/block/mas_blk_core.c:191:32
	add	x0, x0, #1704           // =1704
.Ltmp62:
	.loc	2 191 3 is_stmt 0       // kernel/block/mas_blk_core.c:191:3
	bl	del_timer_sync
.Ltmp63:
	.loc	2 193 1 is_stmt 1       // kernel/block/mas_blk_core.c:193:1
	ldp	x29, x30, [sp], #16     // 16-byte Folded Reload
	ret
.Ltmp64:
.Lfunc_end4:
	.size	mas_blk_queue_usr_ctrl_set, .Lfunc_end4-mas_blk_queue_usr_ctrl_set
	.cfi_endproc
                                        // -- End function
	.section	.text.mas_blk_queue_usr_ctrl_recovery_timer_expire,"ax",@progbits
	.hidden	mas_blk_queue_usr_ctrl_recovery_timer_expire // -- Begin function mas_blk_queue_usr_ctrl_recovery_timer_expire
	.globl	mas_blk_queue_usr_ctrl_recovery_timer_expire
	.p2align	2
	.type	mas_blk_queue_usr_ctrl_recovery_timer_expire,@function
mas_blk_queue_usr_ctrl_recovery_timer_expire: // @mas_blk_queue_usr_ctrl_recovery_timer_expire
.Lfunc_begin5:
	.loc	2 196 0                 // kernel/block/mas_blk_core.c:196:0
	.cfi_startproc
// %bb.0:
	//DEBUG_VALUE: mas_blk_queue_usr_ctrl_recovery_timer_expire:data <- $x0
	//DEBUG_VALUE: mas_blk_queue_usr_ctrl_recovery_timer_expire:data <- $x0
	//DEBUG_VALUE: mas_blk_queue_usr_ctrl_recovery_timer_expire:q <- $x0
	.loc	2 199 26 prologue_end   // kernel/block/mas_blk_core.c:199:26
	str	xzr, [x0, #1512]
	.loc	2 200 20                // kernel/block/mas_blk_core.c:200:20
	str	xzr, [x0, #1696]
	.loc	2 201 1                 // kernel/block/mas_blk_core.c:201:1
	ret
.Ltmp65:
.Lfunc_end5:
	.size	mas_blk_queue_usr_ctrl_recovery_timer_expire, .Lfunc_end5-mas_blk_queue_usr_ctrl_recovery_timer_expire
	.cfi_endproc
                                        // -- End function
	.section	.text.mas_blk_bio_clone_fast,"ax",@progbits
	.hidden	mas_blk_bio_clone_fast  // -- Begin function mas_blk_bio_clone_fast
	.globl	mas_blk_bio_clone_fast
	.p2align	2
	.type	mas_blk_bio_clone_fast,@function
mas_blk_bio_clone_fast:                 // @mas_blk_bio_clone_fast
.Lfunc_begin6:
	.loc	2 227 0                 // kernel/block/mas_blk_core.c:227:0
	.cfi_startproc
// %bb.0:
	//DEBUG_VALUE: mas_blk_bio_clone_fast:bio <- $x0
	//DEBUG_VALUE: mas_blk_bio_clone_fast:bio_src <- $x1
	//DEBUG_VALUE: mas_blk_bio_clone_fast:bio_src <- $x1
	.loc	2 228 29 prologue_end   // kernel/block/mas_blk_core.c:228:29
	ldr	x8, [x1, #96]
	//DEBUG_VALUE: mas_blk_bio_clone_fast:bio <- $x0
	.loc	2 228 18 is_stmt 0      // kernel/block/mas_blk_core.c:228:18
	str	x8, [x0, #96]
	.loc	2 237 1 is_stmt 1       // kernel/block/mas_blk_core.c:237:1
	ret
.Ltmp66:
.Lfunc_end6:
	.size	mas_blk_bio_clone_fast, .Lfunc_end6-mas_blk_bio_clone_fast
	.cfi_endproc
                                        // -- End function
	.section	.text.mas_blk_set_data_flag,"ax",@progbits
	.hidden	mas_blk_set_data_flag   // -- Begin function mas_blk_set_data_flag
	.globl	mas_blk_set_data_flag
	.p2align	2
	.type	mas_blk_set_data_flag,@function
mas_blk_set_data_flag:                  // @mas_blk_set_data_flag
.Lfunc_begin7:
	.loc	2 241 0                 // kernel/block/mas_blk_core.c:241:0
	.cfi_startproc
// %bb.0:
	//DEBUG_VALUE: mas_blk_set_data_flag:q <- $x0
	//DEBUG_VALUE: mas_blk_set_data_flag:data <- $x1
	//DEBUG_VALUE: mas_blk_set_data_flag:data <- $x1
	//DEBUG_VALUE: mas_blk_set_data_flag:bio <- $x2
	//DEBUG_VALUE: mas_blk_set_data_flag:op <- $w3
	//DEBUG_VALUE: mas_blk_set_data_flag:op <- $w3
	.loc	2 242 18 prologue_end   // kernel/block/mas_blk_core.c:242:18
	mov	w8, w3
	.loc	2 242 16 is_stmt 0      // kernel/block/mas_blk_core.c:242:16
	str	x8, [x1, #8]
	.loc	2 251 1 is_stmt 1       // kernel/block/mas_blk_core.c:251:1
	ret
.Ltmp67:
.Lfunc_end7:
	.size	mas_blk_set_data_flag, .Lfunc_end7-mas_blk_set_data_flag
	.cfi_endproc
                                        // -- End function
	.section	.text.mas_blk_bio_queue_split,"ax",@progbits
	.hidden	mas_blk_bio_queue_split // -- Begin function mas_blk_bio_queue_split
	.globl	mas_blk_bio_queue_split
	.p2align	2
	.type	mas_blk_bio_queue_split,@function
mas_blk_bio_queue_split:                // @mas_blk_bio_queue_split
.Lfunc_begin8:
	.loc	2 258 0                 // kernel/block/mas_blk_core.c:258:0
	.cfi_startproc
// %bb.0:
	//DEBUG_VALUE: mas_blk_bio_queue_split:q <- $x0
	//DEBUG_VALUE: mas_blk_bio_queue_split:bio <- $x1
	//DEBUG_VALUE: mas_blk_bio_queue_split:split <- $x2
	stp	x20, x19, [sp, #-32]!   // 16-byte Folded Spill
	stp	x29, x30, [sp, #16]     // 16-byte Folded Spill
	add	x29, sp, #16            // =16
	.cfi_def_cfa w29, 16
	.cfi_offset w30, -8
	.cfi_offset w29, -16
	.cfi_offset w19, -24
	.cfi_offset w20, -32
.Ltmp68:
	.loc	2 259 35 prologue_end   // kernel/block/mas_blk_core.c:259:35
	ldr	x8, [x1]
	mov	x20, x0
.Ltmp69:
	//DEBUG_VALUE: mas_blk_bio_queue_split:q <- $x20
	.loc	2 0 35 is_stmt 0        // kernel/block/mas_blk_core.c:0:35
	mov	x19, x2
.Ltmp70:
	//DEBUG_VALUE: mas_blk_bio_queue_split:split <- $x19
	//DEBUG_VALUE: mas_blk_bio_queue_split:bio <- $x1
	.loc	2 259 2                 // kernel/block/mas_blk_core.c:259:2
	mov	x0, x8
	bl	mas_blk_busyidle_check_bio_endio
.Ltmp71:
	.loc	2 260 2 is_stmt 1       // kernel/block/mas_blk_core.c:260:2
	mov	x0, x20
.Ltmp72:
	//DEBUG_VALUE: mas_blk_bio_queue_split:q <- $x0
	mov	x1, x19
.Ltmp73:
	//DEBUG_VALUE: mas_blk_bio_queue_split:split <- $x1
	bl	mas_blk_busyidle_check_bio
.Ltmp74:
	.loc	2 261 1                 // kernel/block/mas_blk_core.c:261:1
	ldp	x29, x30, [sp, #16]     // 16-byte Folded Reload
	ldp	x20, x19, [sp], #32     // 16-byte Folded Reload
	ret
.Ltmp75:
.Lfunc_end8:
	.size	mas_blk_bio_queue_split, .Lfunc_end8-mas_blk_bio_queue_split
	.cfi_endproc
                                        // -- End function
	.section	.text.mas_blk_bio_merge_allow,"ax",@progbits
	.hidden	mas_blk_bio_merge_allow // -- Begin function mas_blk_bio_merge_allow
	.globl	mas_blk_bio_merge_allow
	.p2align	2
	.type	mas_blk_bio_merge_allow,@function
mas_blk_bio_merge_allow:                // @mas_blk_bio_merge_allow
.Lfunc_begin9:
	.loc	2 267 0                 // kernel/block/mas_blk_core.c:267:0
	.cfi_startproc
// %bb.0:
	//DEBUG_VALUE: mas_blk_bio_merge_allow:rq <- $x0
	//DEBUG_VALUE: mas_blk_bio_merge_allow:bio <- $x1
	.loc	2 272 2 prologue_end    // kernel/block/mas_blk_core.c:272:2
	orr	w0, wzr, #0x1
	ret
.Ltmp76:
.Lfunc_end9:
	.size	mas_blk_bio_merge_allow, .Lfunc_end9-mas_blk_bio_merge_allow
	.cfi_endproc
                                        // -- End function
	.section	.text.mas_blk_bio_merge_done,"ax",@progbits
	.hidden	mas_blk_bio_merge_done  // -- Begin function mas_blk_bio_merge_done
	.globl	mas_blk_bio_merge_done
	.p2align	2
	.type	mas_blk_bio_merge_done,@function
mas_blk_bio_merge_done:                 // @mas_blk_bio_merge_done
.Lfunc_begin10:
	.loc	2 281 0                 // kernel/block/mas_blk_core.c:281:0
	.cfi_startproc
// %bb.0:
	//DEBUG_VALUE: mas_blk_bio_merge_done:q <- $x0
	//DEBUG_VALUE: mas_blk_bio_merge_done:req <- $x1
	//DEBUG_VALUE: mas_blk_bio_merge_done:next <- $x2
	stp	x29, x30, [sp, #-16]!   // 16-byte Folded Spill
	mov	x29, sp
	.cfi_def_cfa w29, 16
	.cfi_offset w30, -8
	.cfi_offset w29, -16
	mov	x0, x1
.Ltmp77:
	//DEBUG_VALUE: mas_blk_bio_merge_done:next <- $x2
	//DEBUG_VALUE: mas_blk_bio_merge_done:req <- $x0
	//DEBUG_VALUE: mas_blk_bio_merge_done:req <- $x0
	.loc	2 282 2 prologue_end    // kernel/block/mas_blk_core.c:282:2
	mov	x1, x2
.Ltmp78:
	//DEBUG_VALUE: mas_blk_bio_merge_done:next <- $x1
	bl	mas_blk_latency_for_merge
.Ltmp79:
	.loc	2 283 1                 // kernel/block/mas_blk_core.c:283:1
	ldp	x29, x30, [sp], #16     // 16-byte Folded Reload
	ret
.Ltmp80:
.Lfunc_end10:
	.size	mas_blk_bio_merge_done, .Lfunc_end10-mas_blk_bio_merge_done
	.cfi_endproc
                                        // -- End function
	.section	.text.mas_blk_account_io_completion,"ax",@progbits
	.hidden	mas_blk_account_io_completion // -- Begin function mas_blk_account_io_completion
	.globl	mas_blk_account_io_completion
	.p2align	2
	.type	mas_blk_account_io_completion,@function
mas_blk_account_io_completion:          // @mas_blk_account_io_completion
.Lfunc_begin11:
	.loc	2 290 0                 // kernel/block/mas_blk_core.c:290:0
	.cfi_startproc
// %bb.0:
	//DEBUG_VALUE: mas_blk_account_io_completion:req <- $x0
	//DEBUG_VALUE: mas_blk_account_io_completion:req <- $x0
	//DEBUG_VALUE: mas_blk_account_io_completion:bytes <- $w1
	//DEBUG_VALUE: mas_blk_account_io_completion:bytes <- $w1
	//DEBUG_VALUE: mas_blk_account_io_completion:lld <- 0
	.loc	2 293 6 prologue_end    // kernel/block/mas_blk_core.c:293:6
	cbz	x0, .LBB11_7
.Ltmp81:
// %bb.1:
	//DEBUG_VALUE: mas_blk_account_io_completion:bytes <- $w1
	//DEBUG_VALUE: mas_blk_account_io_completion:req <- $x0
	.loc	2 296 29                // kernel/block/mas_blk_core.c:296:29
	ldr	x8, [x0, #64]
.Ltmp82:
	//DEBUG_VALUE: mas_blk_get_lld:q <- $x8
	.loc	2 43 6                  // kernel/block/mas_blk_core.c:43:6
	ldr	x9, [x8, #280]
.Ltmp83:
	.loc	2 43 6 is_stmt 0        // kernel/block/mas_blk_core.c:43:6
	cbz	x9, .LBB11_9
.Ltmp84:
// %bb.2:
	//DEBUG_VALUE: mas_blk_get_lld:q <- $x8
	//DEBUG_VALUE: mas_blk_account_io_completion:bytes <- $w1
	//DEBUG_VALUE: mas_blk_account_io_completion:req <- $x0
	.loc	2 44 14 is_stmt 1       // kernel/block/mas_blk_core.c:44:14
	ldr	x9, [x8, #2720]
	.loc	2 44 11 is_stmt 0       // kernel/block/mas_blk_core.c:44:11
	add	x8, x8, #1768           // =1768
.Ltmp85:
	add	x10, x9, #16            // =16
.Ltmp86:
.LBB11_3:
	//DEBUG_VALUE: mas_blk_account_io_completion:bytes <- $w1
	//DEBUG_VALUE: mas_blk_account_io_completion:req <- $x0
	.loc	2 0 0                   // kernel/block/mas_blk_core.c:0:0
	cmp	x9, #0                  // =0
.Ltmp87:
	.loc	2 298 7 is_stmt 1       // kernel/block/mas_blk_core.c:298:7
	ldrb	w9, [x0, #84]
.Ltmp88:
	.loc	2 0 0 is_stmt 0         // kernel/block/mas_blk_core.c:0:0
	csel	x8, x8, x10, eq
.Ltmp89:
	//DEBUG_VALUE: mas_blk_account_io_completion:lld <- $x8
	.loc	2 298 7                 // kernel/block/mas_blk_core.c:298:7
	cmp	w9, #3                  // =3
	b.ne	.LBB11_5
.Ltmp90:
// %bb.4:
	//DEBUG_VALUE: mas_blk_account_io_completion:lld <- $x8
	//DEBUG_VALUE: mas_blk_account_io_completion:bytes <- $w1
	//DEBUG_VALUE: mas_blk_account_io_completion:req <- $x0
	.loc	2 299 21 is_stmt 1      // kernel/block/mas_blk_core.c:299:21
	ldr	x9, [x8, #376]
	add	x9, x9, w1, uxtw
	str	x9, [x8, #376]
.Ltmp91:
	.loc	2 301 7                 // kernel/block/mas_blk_core.c:301:7
	ldrb	w9, [x0, #84]
.Ltmp92:
.LBB11_5:
	//DEBUG_VALUE: mas_blk_account_io_completion:lld <- $x8
	//DEBUG_VALUE: mas_blk_account_io_completion:bytes <- $w1
	//DEBUG_VALUE: mas_blk_account_io_completion:req <- $x0
	.loc	2 301 7 is_stmt 0       // kernel/block/mas_blk_core.c:301:7
	cmp	w9, #1                  // =1
	b.ne	.LBB11_8
.Ltmp93:
// %bb.6:
	//DEBUG_VALUE: mas_blk_account_io_completion:lld <- $x8
	//DEBUG_VALUE: mas_blk_account_io_completion:bytes <- $w1
	//DEBUG_VALUE: mas_blk_account_io_completion:req <- $x0
	.loc	2 302 19 is_stmt 1      // kernel/block/mas_blk_core.c:302:19
	ldr	x9, [x8, #368]
.Ltmp94:
	.loc	2 0 0 is_stmt 0         // kernel/block/mas_blk_core.c:0:0
	mov	w0, wzr
.Ltmp95:
	.loc	2 302 19                // kernel/block/mas_blk_core.c:302:19
	add	x9, x9, w1, uxtw
	str	x9, [x8, #368]
.Ltmp96:
	.loc	2 306 1 is_stmt 1       // kernel/block/mas_blk_core.c:306:1
	ret
.Ltmp97:
.LBB11_7:
	//DEBUG_VALUE: mas_blk_account_io_completion:bytes <- $w1
	//DEBUG_VALUE: mas_blk_account_io_completion:req <- $x0
	.loc	2 0 1 is_stmt 0         // kernel/block/mas_blk_core.c:0:1
	mov	w0, #-1
.Ltmp98:
	.loc	2 306 1                 // kernel/block/mas_blk_core.c:306:1
	ret
.LBB11_8:
.Ltmp99:
	//DEBUG_VALUE: mas_blk_account_io_completion:lld <- $x8
	//DEBUG_VALUE: mas_blk_account_io_completion:bytes <- $w1
	//DEBUG_VALUE: mas_blk_account_io_completion:req <- $x0
	.loc	2 0 0                   // kernel/block/mas_blk_core.c:0:0
	mov	w0, wzr
.Ltmp100:
	.loc	2 306 1                 // kernel/block/mas_blk_core.c:306:1
	ret
.Ltmp101:
.LBB11_9:
	//DEBUG_VALUE: mas_blk_get_lld:q <- $x8
	//DEBUG_VALUE: mas_blk_account_io_completion:bytes <- $w1
	//DEBUG_VALUE: mas_blk_account_io_completion:req <- $x0
	.loc	2 46 14 is_stmt 1       // kernel/block/mas_blk_core.c:46:14
	ldr	x9, [x8, #672]
	.loc	2 46 11 is_stmt 0       // kernel/block/mas_blk_core.c:46:11
	add	x8, x8, #1768           // =1768
.Ltmp102:
	add	x10, x9, #88            // =88
	b	.LBB11_3
.Ltmp103:
.Lfunc_end11:
	.size	mas_blk_account_io_completion, .Lfunc_end11-mas_blk_account_io_completion
	.cfi_endproc
                                        // -- End function
	.section	.text.mas_blk_generic_make_request_check,"ax",@progbits
	.hidden	mas_blk_generic_make_request_check // -- Begin function mas_blk_generic_make_request_check
	.globl	mas_blk_generic_make_request_check
	.p2align	2
	.type	mas_blk_generic_make_request_check,@function
mas_blk_generic_make_request_check:     // @mas_blk_generic_make_request_check
.Lfunc_begin12:
	.loc	2 347 0 is_stmt 1       // kernel/block/mas_blk_core.c:347:0
	.cfi_startproc
// %bb.0:
	//DEBUG_VALUE: mas_blk_generic_make_request_check:bio <- $x0
	stp	x20, x19, [sp, #-32]!   // 16-byte Folded Spill
	stp	x29, x30, [sp, #16]     // 16-byte Folded Spill
	add	x29, sp, #16            // =16
	.cfi_def_cfa w29, 16
	.cfi_offset w30, -8
	.cfi_offset w29, -16
	.cfi_offset w19, -24
	.cfi_offset w20, -32
.Ltmp104:
	.loc	2 348 33 prologue_end   // kernel/block/mas_blk_core.c:348:33
	ldr	x8, [x0, #8]
	.loc	2 368 2                 // kernel/block/mas_blk_core.c:368:2
	mov	w1, wzr
	mov	x19, x0
.Ltmp105:
	//DEBUG_VALUE: mas_blk_generic_make_request_check:bio <- $x19
	.loc	2 348 42                // kernel/block/mas_blk_core.c:348:42
	ldr	x20, [x8, #1016]
.Ltmp106:
	//DEBUG_VALUE: mas_blk_generic_make_request_check:q <- $x20
	.loc	2 368 2                 // kernel/block/mas_blk_core.c:368:2
	bl	mas_blk_latency_bio_check
.Ltmp107:
	.loc	2 369 6                 // kernel/block/mas_blk_core.c:369:6
	mov	x0, x20
	mov	x1, x19
	bl	mas_blk_flush_async_dispatch
.Ltmp108:
	.loc	2 369 6 is_stmt 0       // kernel/block/mas_blk_core.c:369:6
	tbnz	w0, #0, .LBB12_3
.Ltmp109:
// %bb.1:
	//DEBUG_VALUE: mas_blk_generic_make_request_check:q <- $x20
	//DEBUG_VALUE: mas_blk_generic_make_request_check:bio <- $x19
	.loc	2 374 2 is_stmt 1       // kernel/block/mas_blk_core.c:374:2
	mov	x0, x20
	mov	x1, x19
	bl	mas_blk_busyidle_check_bio
	.loc	2 0 0 is_stmt 0         // kernel/block/mas_blk_core.c:0:0
	mov	w0, wzr
.Ltmp110:
.LBB12_2:
	//DEBUG_VALUE: mas_blk_generic_make_request_check:q <- $x20
	//DEBUG_VALUE: mas_blk_generic_make_request_check:bio <- $x19
	.loc	2 377 1 is_stmt 1       // kernel/block/mas_blk_core.c:377:1
	ldp	x29, x30, [sp, #16]     // 16-byte Folded Reload
	ldp	x20, x19, [sp], #32     // 16-byte Folded Reload
.Ltmp111:
	ret
.LBB12_3:
.Ltmp112:
	//DEBUG_VALUE: mas_blk_generic_make_request_check:q <- $x20
	//DEBUG_VALUE: mas_blk_generic_make_request_check:bio <- $x19
	.loc	2 371 3                 // kernel/block/mas_blk_core.c:371:3
	mov	x0, x19
	.loc	2 370 18                // kernel/block/mas_blk_core.c:370:18
	strb	wzr, [x19, #26]
	.loc	2 371 3                 // kernel/block/mas_blk_core.c:371:3
	bl	bio_endio
	orr	w0, wzr, #0x1
	b	.LBB12_2
.Ltmp113:
.Lfunc_end12:
	.size	mas_blk_generic_make_request_check, .Lfunc_end12-mas_blk_generic_make_request_check
	.cfi_endproc
                                        // -- End function
	.section	.text.mas_blk_generic_make_request,"ax",@progbits
	.hidden	mas_blk_generic_make_request // -- Begin function mas_blk_generic_make_request
	.globl	mas_blk_generic_make_request
	.p2align	2
	.type	mas_blk_generic_make_request,@function
mas_blk_generic_make_request:           // @mas_blk_generic_make_request
.Lfunc_begin13:
	.loc	2 383 0                 // kernel/block/mas_blk_core.c:383:0
	.cfi_startproc
// %bb.0:
	//DEBUG_VALUE: mas_blk_generic_make_request:bio <- $x0
	//DEBUG_VALUE: mas_blk_generic_make_request:bio <- $x0
	stp	x29, x30, [sp, #-16]!   // 16-byte Folded Spill
	mov	x29, sp
	.cfi_def_cfa w29, 16
	.cfi_offset w30, -8
	.cfi_offset w29, -16
.Ltmp114:
	.loc	2 384 2 prologue_end    // kernel/block/mas_blk_core.c:384:2
	orr	w1, wzr, #0x2
	//DEBUG_VALUE: mas_blk_generic_make_request:bio <- $x0
	bl	mas_blk_latency_bio_check
.Ltmp115:
	.loc	2 386 1                 // kernel/block/mas_blk_core.c:386:1
	ldp	x29, x30, [sp], #16     // 16-byte Folded Reload
	ret
.Ltmp116:
.Lfunc_end13:
	.size	mas_blk_generic_make_request, .Lfunc_end13-mas_blk_generic_make_request
	.cfi_endproc
                                        // -- End function
	.section	.text.mas_blk_start_plug,"ax",@progbits
	.hidden	mas_blk_start_plug      // -- Begin function mas_blk_start_plug
	.globl	mas_blk_start_plug
	.p2align	2
	.type	mas_blk_start_plug,@function
mas_blk_start_plug:                     // @mas_blk_start_plug
.Lfunc_begin14:
	.loc	2 392 0                 // kernel/block/mas_blk_core.c:392:0
	.cfi_startproc
// %bb.0:
	//DEBUG_VALUE: mas_blk_start_plug:plug <- $x0
	//DEBUG_VALUE: mas_blk_start_plug:plug <- $x0
	.loc	2 393 24 prologue_end   // kernel/block/mas_blk_core.c:393:24
	add	x8, x0, #48             // =48
.Ltmp117:
	//DEBUG_VALUE: __write_once_size:p <- $x8
	//DEBUG_VALUE: __write_once_size:size <- 8
	//DEBUG_VALUE: __write_once_size:res <- undef
	//DEBUG_VALUE: INIT_LIST_HEAD:list <- $x8
	.file	136 "/mnt/disk/jenkins/ci/workspace/chipset_pipeline_release/opensource/component_code/vendor/huawei/extra/build/build_script/kirin_kernel_release/kernel/include/linux/compiler.h"
	.loc	136 210 31              // kernel/include/linux/compiler.h:210:31
	str	x8, [x0, #48]
.Ltmp118:
	.file	137 "/mnt/disk/jenkins/ci/workspace/chipset_pipeline_release/opensource/component_code/vendor/huawei/extra/build/build_script/kirin_kernel_release/kernel/include/linux/list.h"
	.loc	137 29 13               // kernel/include/linux/list.h:29:13
	stp	x8, xzr, [x0, #56]
.Ltmp119:
	.loc	2 395 1                 // kernel/block/mas_blk_core.c:395:1
	ret
.Ltmp120:
.Lfunc_end14:
	.size	mas_blk_start_plug, .Lfunc_end14-mas_blk_start_plug
	.cfi_endproc
                                        // -- End function
	.section	.text.mas_blk_flush_plug_list,"ax",@progbits
	.hidden	mas_blk_flush_plug_list // -- Begin function mas_blk_flush_plug_list
	.globl	mas_blk_flush_plug_list
	.p2align	2
	.type	mas_blk_flush_plug_list,@function
mas_blk_flush_plug_list:                // @mas_blk_flush_plug_list
.Lfunc_begin15:
	.loc	2 401 0                 // kernel/block/mas_blk_core.c:401:0
	.cfi_startproc
// %bb.0:
	//DEBUG_VALUE: mas_blk_flush_plug_list:plug <- $x0
	//DEBUG_VALUE: mas_blk_flush_plug_list:plug <- $x0
	//DEBUG_VALUE: __read_once_size:res <- undef
	//DEBUG_VALUE: __read_once_size:size <- 8
	//DEBUG_VALUE: list_empty:head <- undef
	//DEBUG_VALUE: __read_once_size:p <- undef
	.loc	136 183 2 prologue_end  // kernel/include/linux/compiler.h:183:2
	mov	x8, x0
	ldr	x9, [x8, #48]!
.Ltmp121:
	.loc	2 402 6                 // kernel/block/mas_blk_core.c:402:6
	cmp	x8, x9
	b.eq	.LBB15_3
.Ltmp122:
// %bb.1:
	//DEBUG_VALUE: mas_blk_flush_plug_list:plug <- $x0
	ldr	x8, [x0, #64]
.Ltmp123:
	.loc	2 402 6 is_stmt 0       // kernel/block/mas_blk_core.c:402:6
	cbz	x8, .LBB15_3
.Ltmp124:
// %bb.2:
	//DEBUG_VALUE: mas_blk_flush_plug_list:plug <- $x0
	stp	x29, x30, [sp, #-16]!   // 16-byte Folded Spill
	mov	x29, sp
	.cfi_def_cfa w29, 16
	.cfi_offset w30, -8
	.cfi_offset w29, -16
.Ltmp125:
	.loc	2 404 3 is_stmt 1       // kernel/block/mas_blk_core.c:404:3
	and	w1, w1, #0x1
	blr	x8
.Ltmp126:
	.loc	2 0 3 is_stmt 0         // kernel/block/mas_blk_core.c:0:3
	ldp	x29, x30, [sp], #16     // 16-byte Folded Reload
.Ltmp127:
.LBB15_3:
	.loc	2 406 1 is_stmt 1       // kernel/block/mas_blk_core.c:406:1
	ret
.Ltmp128:
.Lfunc_end15:
	.size	mas_blk_flush_plug_list, .Lfunc_end15-mas_blk_flush_plug_list
	.cfi_endproc
                                        // -- End function
	.section	.text.mas_blk_bio_endio,"ax",@progbits
	.hidden	mas_blk_bio_endio       // -- Begin function mas_blk_bio_endio
	.globl	mas_blk_bio_endio
	.p2align	2
	.type	mas_blk_bio_endio,@function
mas_blk_bio_endio:                      // @mas_blk_bio_endio
.Lfunc_begin16:
	.loc	2 412 0                 // kernel/block/mas_blk_core.c:412:0
	.cfi_startproc
// %bb.0:
	//DEBUG_VALUE: mas_blk_bio_endio:bio <- $x0
	str	x19, [sp, #-32]!        // 8-byte Folded Spill
	stp	x29, x30, [sp, #16]     // 16-byte Folded Spill
	add	x29, sp, #16            // =16
	.cfi_def_cfa w29, 16
	.cfi_offset w30, -8
	.cfi_offset w29, -16
	.cfi_offset w19, -32
	mov	x19, x0
.Ltmp129:
	//DEBUG_VALUE: mas_blk_bio_endio:bio <- $x19
	.loc	2 413 2 prologue_end    // kernel/block/mas_blk_core.c:413:2
	bl	mas_blk_busyidle_check_bio_endio
	.loc	2 414 2                 // kernel/block/mas_blk_core.c:414:2
	orr	w1, wzr, #0x1
	mov	x0, x19
	bl	mas_blk_latency_bio_check
	.loc	2 415 1                 // kernel/block/mas_blk_core.c:415:1
	ldp	x29, x30, [sp, #16]     // 16-byte Folded Reload
	ldr	x19, [sp], #32          // 8-byte Folded Reload
.Ltmp130:
	ret
.Ltmp131:
.Lfunc_end16:
	.size	mas_blk_bio_endio, .Lfunc_end16-mas_blk_bio_endio
	.cfi_endproc
                                        // -- End function
	.section	.text.mas_blk_bio_free,"ax",@progbits
	.hidden	mas_blk_bio_free        // -- Begin function mas_blk_bio_free
	.globl	mas_blk_bio_free
	.p2align	2
	.type	mas_blk_bio_free,@function
mas_blk_bio_free:                       // @mas_blk_bio_free
.Lfunc_begin17:
	.loc	2 421 0                 // kernel/block/mas_blk_core.c:421:0
	.cfi_startproc
// %bb.0:
	//DEBUG_VALUE: mas_blk_bio_free:bio <- $x0
	//DEBUG_VALUE: mas_blk_bio_free:bio <- $x0
	.loc	2 422 6 prologue_end    // kernel/block/mas_blk_core.c:422:6
	ldrb	w8, [x0, #152]
.Ltmp132:
	.loc	2 422 6 is_stmt 0       // kernel/block/mas_blk_core.c:422:6
	tbnz	w8, #0, .LBB17_2
.Ltmp133:
// %bb.1:
	//DEBUG_VALUE: mas_blk_bio_free:bio <- $x0
	.loc	2 431 1 is_stmt 1       // kernel/block/mas_blk_core.c:431:1
	ret
.Ltmp134:
.LBB17_2:
	//DEBUG_VALUE: mas_blk_bio_free:bio <- $x0
	stp	x29, x30, [sp, #-16]!   // 16-byte Folded Spill
	mov	x29, sp
	.cfi_def_cfa w29, 16
	.cfi_offset w30, -8
	.cfi_offset w29, -16
.Ltmp135:
	.loc	2 428 3                 // kernel/block/mas_blk_core.c:428:3
	bl	mas_blk_busyidle_check_bio_endio
.Ltmp136:
	.loc	2 0 3 is_stmt 0         // kernel/block/mas_blk_core.c:0:3
	ldp	x29, x30, [sp], #16     // 16-byte Folded Reload
.Ltmp137:
	.loc	2 431 1 is_stmt 1       // kernel/block/mas_blk_core.c:431:1
	ret
.Ltmp138:
.Lfunc_end17:
	.size	mas_blk_bio_free, .Lfunc_end17-mas_blk_bio_free
	.cfi_endproc
                                        // -- End function
	.section	.text.mas_blk_request_init_from_bio,"ax",@progbits
	.hidden	mas_blk_request_init_from_bio // -- Begin function mas_blk_request_init_from_bio
	.globl	mas_blk_request_init_from_bio
	.p2align	2
	.type	mas_blk_request_init_from_bio,@function
mas_blk_request_init_from_bio:          // @mas_blk_request_init_from_bio
.Lfunc_begin18:
	.loc	2 437 0                 // kernel/block/mas_blk_core.c:437:0
	.cfi_startproc
// %bb.0:
	//DEBUG_VALUE: mas_blk_request_init_from_bio:req <- $x0
	//DEBUG_VALUE: mas_blk_request_init_from_bio:bio <- $x1
	stp	x20, x19, [sp, #-32]!   // 16-byte Folded Spill
	stp	x29, x30, [sp, #16]     // 16-byte Folded Spill
	add	x29, sp, #16            // =16
	.cfi_def_cfa w29, 16
	.cfi_offset w30, -8
	.cfi_offset w29, -16
	.cfi_offset w19, -24
	.cfi_offset w20, -32
	mov	x19, x1
.Ltmp139:
	.loc	2 438 2 prologue_end    // kernel/block/mas_blk_core.c:438:2
	mov	w1, wzr
.Ltmp140:
	.loc	2 0 2 is_stmt 0         // kernel/block/mas_blk_core.c:0:2
	mov	x20, x0
.Ltmp141:
	//DEBUG_VALUE: mas_blk_request_init_from_bio:bio <- $x19
	//DEBUG_VALUE: mas_blk_request_init_from_bio:req <- $x20
	.loc	2 438 2                 // kernel/block/mas_blk_core.c:438:2
	bl	mas_blk_latency_req_check
	.loc	2 439 30 is_stmt 1      // kernel/block/mas_blk_core.c:439:30
	str	wzr, [x20, #284]
	.loc	2 443 22                // kernel/block/mas_blk_core.c:443:22
	str	x20, [x19, #112]
	.loc	2 453 1                 // kernel/block/mas_blk_core.c:453:1
	ldp	x29, x30, [sp, #16]     // 16-byte Folded Reload
	ldp	x20, x19, [sp], #32     // 16-byte Folded Reload
.Ltmp142:
	ret
.Ltmp143:
.Lfunc_end18:
	.size	mas_blk_request_init_from_bio, .Lfunc_end18-mas_blk_request_init_from_bio
	.cfi_endproc
                                        // -- End function
	.section	.text.mas_blk_insert_cloned_request,"ax",@progbits
	.hidden	mas_blk_insert_cloned_request // -- Begin function mas_blk_insert_cloned_request
	.globl	mas_blk_insert_cloned_request
	.p2align	2
	.type	mas_blk_insert_cloned_request,@function
mas_blk_insert_cloned_request:          // @mas_blk_insert_cloned_request
.Lfunc_begin19:
	.loc	2 461 0                 // kernel/block/mas_blk_core.c:461:0
	.cfi_startproc
// %bb.0:
	//DEBUG_VALUE: mas_blk_insert_cloned_request:q <- $x0
	//DEBUG_VALUE: mas_blk_insert_cloned_request:q <- $x0
	//DEBUG_VALUE: mas_blk_insert_cloned_request:rq <- $x1
	//DEBUG_VALUE: mas_blk_insert_cloned_request:rq <- $x1
	//DEBUG_VALUE: mas_blk_insert_cloned_request:rq <- $x1
	//DEBUG_VALUE: mas_blk_insert_cloned_request:q <- $x0
	stp	x29, x30, [sp, #-16]!   // 16-byte Folded Spill
	mov	x29, sp
	.cfi_def_cfa w29, 16
	.cfi_offset w30, -8
	.cfi_offset w29, -16
.Ltmp144:
	.loc	2 462 2 prologue_end    // kernel/block/mas_blk_core.c:462:2
	bl	mas_blk_busyidle_check_request_bio
.Ltmp145:
	.loc	2 463 1                 // kernel/block/mas_blk_core.c:463:1
	ldp	x29, x30, [sp], #16     // 16-byte Folded Reload
	ret
.Ltmp146:
.Lfunc_end19:
	.size	mas_blk_insert_cloned_request, .Lfunc_end19-mas_blk_insert_cloned_request
	.cfi_endproc
                                        // -- End function
	.section	.text.mas_blk_request_execute_nowait,"ax",@progbits
	.hidden	mas_blk_request_execute_nowait // -- Begin function mas_blk_request_execute_nowait
	.globl	mas_blk_request_execute_nowait
	.p2align	2
	.type	mas_blk_request_execute_nowait,@function
mas_blk_request_execute_nowait:         // @mas_blk_request_execute_nowait
.Lfunc_begin20:
	.loc	2 471 0                 // kernel/block/mas_blk_core.c:471:0
	.cfi_startproc
// %bb.0:
	//DEBUG_VALUE: mas_blk_request_execute_nowait:q <- $x0
	//DEBUG_VALUE: mas_blk_request_execute_nowait:q <- $x0
	//DEBUG_VALUE: mas_blk_request_execute_nowait:rq <- $x1
	//DEBUG_VALUE: mas_blk_request_execute_nowait:rq <- $x1
	//DEBUG_VALUE: mas_blk_request_execute_nowait:done <- $x2
	//DEBUG_VALUE: mas_blk_request_execute_nowait:done <- $x2
	//DEBUG_VALUE: mas_blk_request_execute_nowait:done <- $x2
	//DEBUG_VALUE: mas_blk_request_execute_nowait:rq <- $x1
	//DEBUG_VALUE: mas_blk_request_execute_nowait:q <- $x0
	stp	x29, x30, [sp, #-16]!   // 16-byte Folded Spill
	mov	x29, sp
	.cfi_def_cfa w29, 16
	.cfi_offset w30, -8
	.cfi_offset w29, -16
.Ltmp147:
	.loc	2 472 2 prologue_end    // kernel/block/mas_blk_core.c:472:2
	bl	mas_blk_busyidle_check_execute_request
.Ltmp148:
	.loc	2 473 1                 // kernel/block/mas_blk_core.c:473:1
	ldp	x29, x30, [sp], #16     // 16-byte Folded Reload
	ret
.Ltmp149:
.Lfunc_end20:
	.size	mas_blk_request_execute_nowait, .Lfunc_end20-mas_blk_request_execute_nowait
	.cfi_endproc
                                        // -- End function
	.section	.text.mas_blk_mq_rq_ctx_init,"ax",@progbits
	.hidden	mas_blk_mq_rq_ctx_init  // -- Begin function mas_blk_mq_rq_ctx_init
	.globl	mas_blk_mq_rq_ctx_init
	.p2align	2
	.type	mas_blk_mq_rq_ctx_init,@function
mas_blk_mq_rq_ctx_init:                 // @mas_blk_mq_rq_ctx_init
.Lfunc_begin21:
	.loc	2 480 0                 // kernel/block/mas_blk_core.c:480:0
	.cfi_startproc
// %bb.0:
	//DEBUG_VALUE: mas_blk_mq_rq_ctx_init:q <- $x0
	//DEBUG_VALUE: mas_blk_mq_rq_ctx_init:ctx <- $x1
	//DEBUG_VALUE: mas_blk_mq_rq_ctx_init:rq <- $x2
	str	x19, [sp, #-32]!        // 8-byte Folded Spill
	stp	x29, x30, [sp, #16]     // 16-byte Folded Spill
	add	x29, sp, #16            // =16
	.cfi_def_cfa w29, 16
	.cfi_offset w30, -8
	.cfi_offset w29, -16
	.cfi_offset w19, -32
.Ltmp150:
	.loc	2 481 9 prologue_end    // kernel/block/mas_blk_core.c:481:9
	ldr	x8, [x0, #1760]
	//DEBUG_VALUE: mas_blk_mq_rq_ctx_init:ctx <- $x1
	mov	x19, x2
.Ltmp151:
	//DEBUG_VALUE: mas_blk_mq_rq_ctx_init:rq <- $x19
	//DEBUG_VALUE: mas_blk_mq_rq_ctx_init:q <- $x0
	.loc	2 481 23 is_stmt 0      // kernel/block/mas_blk_core.c:481:23
	cbz	x8, .LBB21_3
.Ltmp152:
// %bb.1:
	//DEBUG_VALUE: mas_blk_mq_rq_ctx_init:rq <- $x19
	//DEBUG_VALUE: mas_blk_mq_rq_ctx_init:ctx <- $x1
	//DEBUG_VALUE: mas_blk_mq_rq_ctx_init:q <- $x0
	.loc	2 481 44                // kernel/block/mas_blk_core.c:481:44
	ldr	x8, [x8, #32]
.Ltmp153:
	.loc	2 481 6                 // kernel/block/mas_blk_core.c:481:6
	cbz	x8, .LBB21_3
.Ltmp154:
// %bb.2:
	//DEBUG_VALUE: mas_blk_mq_rq_ctx_init:rq <- $x19
	//DEBUG_VALUE: mas_blk_mq_rq_ctx_init:ctx <- $x1
	//DEBUG_VALUE: mas_blk_mq_rq_ctx_init:q <- $x0
	.loc	2 482 3 is_stmt 1       // kernel/block/mas_blk_core.c:482:3
	mov	x2, x19
	blr	x8
.Ltmp155:
.LBB21_3:
	//DEBUG_VALUE: mas_blk_mq_rq_ctx_init:rq <- $x19
	.loc	2 485 2                 // kernel/block/mas_blk_core.c:485:2
	mov	x0, x19
	bl	mas_blk_inline_crypto_req_init
	.loc	2 487 1                 // kernel/block/mas_blk_core.c:487:1
	ldp	x29, x30, [sp, #16]     // 16-byte Folded Reload
	ldr	x19, [sp], #32          // 8-byte Folded Reload
.Ltmp156:
	ret
.Ltmp157:
.Lfunc_end21:
	.size	mas_blk_mq_rq_ctx_init, .Lfunc_end21-mas_blk_mq_rq_ctx_init
	.cfi_endproc
                                        // -- End function
	.section	.text.mas_blk_mq_request_start,"ax",@progbits
	.hidden	mas_blk_mq_request_start // -- Begin function mas_blk_mq_request_start
	.globl	mas_blk_mq_request_start
	.p2align	2
	.type	mas_blk_mq_request_start,@function
mas_blk_mq_request_start:               // @mas_blk_mq_request_start
.Lfunc_begin22:
	.loc	2 493 0                 // kernel/block/mas_blk_core.c:493:0
	.cfi_startproc
// %bb.0:
	//DEBUG_VALUE: mas_blk_mq_request_start:req <- $x0
	str	x19, [sp, #-32]!        // 8-byte Folded Spill
	stp	x29, x30, [sp, #16]     // 16-byte Folded Spill
	add	x29, sp, #16            // =16
	.cfi_def_cfa w29, 16
	.cfi_offset w30, -8
	.cfi_offset w29, -16
	.cfi_offset w19, -32
.Ltmp158:
	.loc	2 494 2 prologue_end    // kernel/block/mas_blk_core.c:494:2
	mov	w1, #5
	mov	x19, x0
.Ltmp159:
	//DEBUG_VALUE: mas_blk_mq_request_start:req <- $x19
	bl	mas_blk_latency_req_check
.Ltmp160:
	.loc	2 495 6                 // kernel/block/mas_blk_core.c:495:6
	ldr	x8, [x19, #64]
	mov	w10, #28570
	movk	w10, #4, lsl #16
	ldr	x9, [x8, #1512]
.Ltmp161:
	.loc	2 495 6 is_stmt 0       // kernel/block/mas_blk_core.c:495:6
	cmp	x9, x10
	b.eq	.LBB22_2
.Ltmp162:
.LBB22_1:
	//DEBUG_VALUE: mas_blk_mq_request_start:req <- $x19
	.loc	2 498 1 is_stmt 1       // kernel/block/mas_blk_core.c:498:1
	ldp	x29, x30, [sp, #16]     // 16-byte Folded Reload
	ldr	x19, [sp], #32          // 8-byte Folded Reload
.Ltmp163:
	ret
.LBB22_2:
.Ltmp164:
	//DEBUG_VALUE: mas_blk_mq_request_start:req <- $x19
	//DEBUG_VALUE: mas_blk_io_speed_adj_func:req <- $x19
	//DEBUG_VALUE: blk_rq_is_passthrough:rq <- $x19
	//DEBUG_VALUE: blk_rq_is_scsi:rq <- $x19
	.loc	4 408 24                // kernel/include/linux/blkdev.h:408:24
	ldrb	w9, [x19, #84]
.Ltmp165:
	.loc	4 418 28                // kernel/include/linux/blkdev.h:418:28
	orr	w10, w9, #0x3
.Ltmp166:
	.loc	2 158 51                // kernel/block/mas_blk_core.c:158:51
	cmp	w10, #35                // =35
	b.eq	.LBB22_1
.Ltmp167:
// %bb.3:
	//DEBUG_VALUE: mas_blk_io_speed_adj_func:req <- $x19
	//DEBUG_VALUE: mas_blk_mq_request_start:req <- $x19
	.loc	2 158 60 is_stmt 0      // kernel/block/mas_blk_core.c:158:60
	ldr	w10, [x19, #104]
.Ltmp168:
	.loc	2 158 6                 // kernel/block/mas_blk_core.c:158:6
	cbz	w10, .LBB22_1
.Ltmp169:
// %bb.4:
	//DEBUG_VALUE: mas_blk_io_speed_adj_func:req <- $x19
	//DEBUG_VALUE: mas_blk_mq_request_start:req <- $x19
	.loc	2 161 6 is_stmt 1       // kernel/block/mas_blk_core.c:161:6
	cmp	w9, #1                  // =1
	b.ne	.LBB22_11
.Ltmp170:
// %bb.5:
	//DEBUG_VALUE: mas_blk_io_speed_adj_func:req <- $x19
	//DEBUG_VALUE: mas_blk_mq_request_start:req <- $x19
	.loc	2 162 30                // kernel/block/mas_blk_core.c:162:30
	cmp	w10, #32, lsl #12       // =131072
	b.hi	.LBB22_8
.Ltmp171:
// %bb.6:
	//DEBUG_VALUE: mas_blk_io_speed_adj_func:req <- $x19
	//DEBUG_VALUE: mas_blk_mq_request_start:req <- $x19
	.loc	2 0 0 is_stmt 0         // kernel/block/mas_blk_core.c:0:0
	ldr	x0, [x8, #1696]
	.loc	2 162 30                // kernel/block/mas_blk_core.c:162:30
	cbz	x0, .LBB22_8
.Ltmp172:
// %bb.7:
	//DEBUG_VALUE: mas_blk_io_speed_adj_func:req <- $x19
	//DEBUG_VALUE: mas_blk_mq_request_start:req <- $x19
	.loc	2 164 4 is_stmt 1       // kernel/block/mas_blk_core.c:164:4
	bl	__udelay
.Ltmp173:
.LBB22_8:
	//DEBUG_VALUE: mas_blk_io_speed_adj_func:req <- $x19
	//DEBUG_VALUE: mas_blk_mq_request_start:req <- $x19
	.loc	2 165 12                // kernel/block/mas_blk_core.c:165:12
	ldr	x8, [x19, #64]
	.loc	2 165 25 is_stmt 0      // kernel/block/mas_blk_core.c:165:25
	ldr	x0, [x8, #1680]
	.loc	2 165 30                // kernel/block/mas_blk_core.c:165:30
	cbz	x0, .LBB22_11
.Ltmp174:
// %bb.9:
	//DEBUG_VALUE: mas_blk_io_speed_adj_func:req <- $x19
	//DEBUG_VALUE: mas_blk_mq_request_start:req <- $x19
	.loc	2 166 10 is_stmt 1      // kernel/block/mas_blk_core.c:166:10
	ldr	w8, [x19, #104]
.Ltmp175:
	.loc	2 165 7                 // kernel/block/mas_blk_core.c:165:7
	cmp	w8, #32, lsl #12        // =131072
	b.ls	.LBB22_11
.Ltmp176:
// %bb.10:
	//DEBUG_VALUE: mas_blk_io_speed_adj_func:req <- $x19
	//DEBUG_VALUE: mas_blk_mq_request_start:req <- $x19
	.loc	2 167 4                 // kernel/block/mas_blk_core.c:167:4
	bl	__udelay
.Ltmp177:
.LBB22_11:
	//DEBUG_VALUE: mas_blk_io_speed_adj_func:req <- $x19
	//DEBUG_VALUE: mas_blk_mq_request_start:req <- $x19
	.loc	2 169 6                 // kernel/block/mas_blk_core.c:169:6
	ldrb	w8, [x19, #84]
	cbnz	w8, .LBB22_1
.Ltmp178:
// %bb.12:
	//DEBUG_VALUE: mas_blk_io_speed_adj_func:req <- $x19
	//DEBUG_VALUE: mas_blk_mq_request_start:req <- $x19
	.loc	2 170 12                // kernel/block/mas_blk_core.c:170:12
	ldr	x8, [x19, #64]
	.loc	2 170 25 is_stmt 0      // kernel/block/mas_blk_core.c:170:25
	ldr	x0, [x8, #1688]
	.loc	2 170 30                // kernel/block/mas_blk_core.c:170:30
	cbz	x0, .LBB22_15
.Ltmp179:
// %bb.13:
	//DEBUG_VALUE: mas_blk_io_speed_adj_func:req <- $x19
	//DEBUG_VALUE: mas_blk_mq_request_start:req <- $x19
	.loc	2 171 10 is_stmt 1      // kernel/block/mas_blk_core.c:171:10
	ldr	w8, [x19, #104]
.Ltmp180:
	.loc	2 170 7                 // kernel/block/mas_blk_core.c:170:7
	cmp	w8, #32, lsl #12        // =131072
	b.hi	.LBB22_15
.Ltmp181:
// %bb.14:
	//DEBUG_VALUE: mas_blk_io_speed_adj_func:req <- $x19
	//DEBUG_VALUE: mas_blk_mq_request_start:req <- $x19
	.loc	2 172 4                 // kernel/block/mas_blk_core.c:172:4
	bl	__udelay
.Ltmp182:
.LBB22_15:
	//DEBUG_VALUE: mas_blk_io_speed_adj_func:req <- $x19
	//DEBUG_VALUE: mas_blk_mq_request_start:req <- $x19
	.loc	2 173 12                // kernel/block/mas_blk_core.c:173:12
	ldr	x8, [x19, #64]
	.loc	2 173 25 is_stmt 0      // kernel/block/mas_blk_core.c:173:25
	ldr	x0, [x8, #1672]
	.loc	2 173 30                // kernel/block/mas_blk_core.c:173:30
	cbz	x0, .LBB22_1
.Ltmp183:
// %bb.16:
	//DEBUG_VALUE: mas_blk_io_speed_adj_func:req <- $x19
	//DEBUG_VALUE: mas_blk_mq_request_start:req <- $x19
	.loc	2 174 10 is_stmt 1      // kernel/block/mas_blk_core.c:174:10
	ldr	w8, [x19, #104]
.Ltmp184:
	.loc	2 173 7                 // kernel/block/mas_blk_core.c:173:7
	cmp	w8, #32, lsl #12        // =131072
	b.ls	.LBB22_1
.Ltmp185:
// %bb.17:
	//DEBUG_VALUE: mas_blk_io_speed_adj_func:req <- $x19
	//DEBUG_VALUE: mas_blk_mq_request_start:req <- $x19
	.loc	2 175 4                 // kernel/block/mas_blk_core.c:175:4
	bl	__udelay
	b	.LBB22_1
.Ltmp186:
.Lfunc_end22:
	.size	mas_blk_mq_request_start, .Lfunc_end22-mas_blk_mq_request_start
	.cfi_endproc
                                        // -- End function
	.section	.text.mas_blk_request_start,"ax",@progbits
	.hidden	mas_blk_request_start   // -- Begin function mas_blk_request_start
	.globl	mas_blk_request_start
	.p2align	2
	.type	mas_blk_request_start,@function
mas_blk_request_start:                  // @mas_blk_request_start
.Lfunc_begin23:
	.loc	2 504 0                 // kernel/block/mas_blk_core.c:504:0
	.cfi_startproc
// %bb.0:
	//DEBUG_VALUE: mas_blk_request_start:req <- $x0
	//DEBUG_VALUE: mas_blk_request_start:req <- $x0
	stp	x29, x30, [sp, #-16]!   // 16-byte Folded Spill
	mov	x29, sp
	.cfi_def_cfa w29, 16
	.cfi_offset w30, -8
	.cfi_offset w29, -16
.Ltmp187:
	.loc	2 505 2 prologue_end    // kernel/block/mas_blk_core.c:505:2
	mov	w1, #5
	//DEBUG_VALUE: mas_blk_request_start:req <- $x0
	bl	mas_blk_latency_req_check
.Ltmp188:
	.loc	2 506 1                 // kernel/block/mas_blk_core.c:506:1
	ldp	x29, x30, [sp], #16     // 16-byte Folded Reload
	ret
.Ltmp189:
.Lfunc_end23:
	.size	mas_blk_request_start, .Lfunc_end23-mas_blk_request_start
	.cfi_endproc
                                        // -- End function
	.section	.text.mas_blk_requeue_request,"ax",@progbits
	.hidden	mas_blk_requeue_request // -- Begin function mas_blk_requeue_request
	.globl	mas_blk_requeue_request
	.p2align	2
	.type	mas_blk_requeue_request,@function
mas_blk_requeue_request:                // @mas_blk_requeue_request
.Lfunc_begin24:
	.loc	2 512 0                 // kernel/block/mas_blk_core.c:512:0
	.cfi_startproc
// %bb.0:
	//DEBUG_VALUE: mas_blk_requeue_request:rq <- $x0
	//DEBUG_VALUE: mas_blk_requeue_request:rq <- $x0
	stp	x29, x30, [sp, #-16]!   // 16-byte Folded Spill
	mov	x29, sp
	.cfi_def_cfa w29, 16
	.cfi_offset w30, -8
	.cfi_offset w29, -16
.Ltmp190:
	.loc	2 513 2 prologue_end    // kernel/block/mas_blk_core.c:513:2
	mov	w1, #11
	//DEBUG_VALUE: mas_blk_requeue_request:rq <- $x0
	bl	mas_blk_latency_req_check
.Ltmp191:
	.loc	2 515 1                 // kernel/block/mas_blk_core.c:515:1
	ldp	x29, x30, [sp], #16     // 16-byte Folded Reload
	ret
.Ltmp192:
.Lfunc_end24:
	.size	mas_blk_requeue_request, .Lfunc_end24-mas_blk_requeue_request
	.cfi_endproc
                                        // -- End function
	.section	.text.mas_blk_request_update,"ax",@progbits
	.hidden	mas_blk_request_update  // -- Begin function mas_blk_request_update
	.globl	mas_blk_request_update
	.p2align	2
	.type	mas_blk_request_update,@function
mas_blk_request_update:                 // @mas_blk_request_update
.Lfunc_begin25:
	.loc	2 522 0                 // kernel/block/mas_blk_core.c:522:0
	.cfi_startproc
// %bb.0:
	//DEBUG_VALUE: mas_blk_request_update:req <- $x0
	//DEBUG_VALUE: mas_blk_request_update:error <- $w1
	//DEBUG_VALUE: mas_blk_request_update:nr_bytes <- $w2
	str	x19, [sp, #-32]!        // 8-byte Folded Spill
	stp	x29, x30, [sp, #16]     // 16-byte Folded Spill
	add	x29, sp, #16            // =16
	.cfi_def_cfa w29, 16
	.cfi_offset w30, -8
	.cfi_offset w29, -16
	.cfi_offset w19, -32
.Ltmp193:
	.loc	2 523 49 prologue_end   // kernel/block/mas_blk_core.c:523:49
	ldr	x8, [x0, #64]
.Ltmp194:
	//DEBUG_VALUE: mas_blk_get_lld:q <- $x8
	.loc	2 0 49 is_stmt 0        // kernel/block/mas_blk_core.c:0:49
	mov	x19, x0
	//DEBUG_VALUE: mas_blk_request_update:nr_bytes <- $w2
.Ltmp195:
	//DEBUG_VALUE: mas_blk_request_update:error <- undef
	//DEBUG_VALUE: mas_blk_request_update:req <- $x19
	.loc	2 43 6 is_stmt 1        // kernel/block/mas_blk_core.c:43:6
	ldr	x9, [x8, #280]
.Ltmp196:
	//DEBUG_VALUE: mas_blk_request_update:error <- $w1
	.loc	2 43 6 is_stmt 0        // kernel/block/mas_blk_core.c:43:6
	cbz	x9, .LBB25_9
.Ltmp197:
// %bb.1:
	//DEBUG_VALUE: mas_blk_request_update:req <- $x19
	//DEBUG_VALUE: mas_blk_get_lld:q <- $x8
	//DEBUG_VALUE: mas_blk_request_update:nr_bytes <- $w2
	//DEBUG_VALUE: mas_blk_request_update:error <- $w1
	.loc	2 44 14 is_stmt 1       // kernel/block/mas_blk_core.c:44:14
	ldr	x9, [x8, #2720]
	.loc	2 44 11 is_stmt 0       // kernel/block/mas_blk_core.c:44:11
	add	x8, x8, #1768           // =1768
.Ltmp198:
	add	x10, x9, #16            // =16
.Ltmp199:
.LBB25_2:
	//DEBUG_VALUE: mas_blk_request_update:req <- $x19
	//DEBUG_VALUE: mas_blk_request_update:nr_bytes <- $w2
	//DEBUG_VALUE: mas_blk_request_update:error <- $w1
	.loc	2 0 0                   // kernel/block/mas_blk_core.c:0:0
	cmp	x9, #0                  // =0
.Ltmp200:
	.loc	2 525 6 is_stmt 1       // kernel/block/mas_blk_core.c:525:6
	ldrb	w9, [x19, #84]
.Ltmp201:
	.loc	2 0 0 is_stmt 0         // kernel/block/mas_blk_core.c:0:0
	csel	x8, x8, x10, eq
.Ltmp202:
	//DEBUG_VALUE: mas_blk_request_update:lld <- $x8
	.loc	2 525 6                 // kernel/block/mas_blk_core.c:525:6
	cmp	w9, #3                  // =3
	b.eq	.LBB25_7
.Ltmp203:
// %bb.3:
	//DEBUG_VALUE: mas_blk_request_update:lld <- $x8
	//DEBUG_VALUE: mas_blk_request_update:req <- $x19
	//DEBUG_VALUE: mas_blk_request_update:nr_bytes <- $w2
	//DEBUG_VALUE: mas_blk_request_update:error <- $w1
	.loc	2 528 6 is_stmt 1       // kernel/block/mas_blk_core.c:528:6
	cmp	w9, #1                  // =1
	b.eq	.LBB25_8
.Ltmp204:
.LBB25_4:
	//DEBUG_VALUE: mas_blk_request_update:lld <- $x8
	//DEBUG_VALUE: mas_blk_request_update:req <- $x19
	//DEBUG_VALUE: mas_blk_request_update:nr_bytes <- $w2
	//DEBUG_VALUE: mas_blk_request_update:error <- $w1
	.loc	2 531 6                 // kernel/block/mas_blk_core.c:531:6
	cmp	w9, #2                  // =2
	b.ne	.LBB25_6
.Ltmp205:
.LBB25_5:
	//DEBUG_VALUE: mas_blk_request_update:lld <- $x8
	//DEBUG_VALUE: mas_blk_request_update:req <- $x19
	//DEBUG_VALUE: mas_blk_request_update:nr_bytes <- $w2
	//DEBUG_VALUE: mas_blk_request_update:error <- $w1
	.loc	2 532 29                // kernel/block/mas_blk_core.c:532:29
	and	w1, w1, #0xff
.Ltmp206:
	.loc	2 532 3 is_stmt 0       // kernel/block/mas_blk_core.c:532:3
	mov	x0, x19
	bl	mas_blk_flush_update
.Ltmp207:
.LBB25_6:
	//DEBUG_VALUE: mas_blk_request_update:req <- $x19
	.loc	2 534 2 is_stmt 1       // kernel/block/mas_blk_core.c:534:2
	mov	w1, #13
	mov	x0, x19
	bl	mas_blk_latency_req_check
	.loc	2 540 1                 // kernel/block/mas_blk_core.c:540:1
	ldp	x29, x30, [sp, #16]     // 16-byte Folded Reload
	ldr	x19, [sp], #32          // 8-byte Folded Reload
.Ltmp208:
	ret
.LBB25_7:
.Ltmp209:
	//DEBUG_VALUE: mas_blk_request_update:lld <- $x8
	//DEBUG_VALUE: mas_blk_request_update:req <- $x19
	//DEBUG_VALUE: mas_blk_request_update:nr_bytes <- $w2
	//DEBUG_VALUE: mas_blk_request_update:error <- $w1
	.loc	2 526 20                // kernel/block/mas_blk_core.c:526:20
	ldr	x9, [x8, #376]
	add	x9, x9, w2, uxtw
	str	x9, [x8, #376]
.Ltmp210:
	.loc	2 528 6                 // kernel/block/mas_blk_core.c:528:6
	ldrb	w9, [x19, #84]
.Ltmp211:
	.loc	2 528 6 is_stmt 0       // kernel/block/mas_blk_core.c:528:6
	cmp	w9, #1                  // =1
	b.ne	.LBB25_4
.Ltmp212:
.LBB25_8:
	//DEBUG_VALUE: mas_blk_request_update:lld <- $x8
	//DEBUG_VALUE: mas_blk_request_update:req <- $x19
	//DEBUG_VALUE: mas_blk_request_update:nr_bytes <- $w2
	//DEBUG_VALUE: mas_blk_request_update:error <- $w1
	.loc	2 529 18 is_stmt 1      // kernel/block/mas_blk_core.c:529:18
	ldr	x9, [x8, #368]
	add	x9, x9, w2, uxtw
	str	x9, [x8, #368]
.Ltmp213:
	.loc	2 531 6                 // kernel/block/mas_blk_core.c:531:6
	ldrb	w9, [x19, #84]
.Ltmp214:
	.loc	2 531 6 is_stmt 0       // kernel/block/mas_blk_core.c:531:6
	cmp	w9, #2                  // =2
	b.eq	.LBB25_5
	b	.LBB25_6
.Ltmp215:
.LBB25_9:
	//DEBUG_VALUE: mas_blk_request_update:req <- $x19
	//DEBUG_VALUE: mas_blk_get_lld:q <- $x8
	//DEBUG_VALUE: mas_blk_request_update:nr_bytes <- $w2
	//DEBUG_VALUE: mas_blk_request_update:error <- $w1
	.loc	2 46 14 is_stmt 1       // kernel/block/mas_blk_core.c:46:14
	ldr	x9, [x8, #672]
	.loc	2 46 11 is_stmt 0       // kernel/block/mas_blk_core.c:46:11
	add	x8, x8, #1768           // =1768
.Ltmp216:
	add	x10, x9, #88            // =88
	b	.LBB25_2
.Ltmp217:
.Lfunc_end25:
	.size	mas_blk_request_update, .Lfunc_end25-mas_blk_request_update
	.cfi_endproc
                                        // -- End function
	.section	.text.mas_blk_mq_request_free,"ax",@progbits
	.hidden	mas_blk_mq_request_free // -- Begin function mas_blk_mq_request_free
	.globl	mas_blk_mq_request_free
	.p2align	2
	.type	mas_blk_mq_request_free,@function
mas_blk_mq_request_free:                // @mas_blk_mq_request_free
.Lfunc_begin26:
	.loc	2 546 0 is_stmt 1       // kernel/block/mas_blk_core.c:546:0
	.cfi_startproc
// %bb.0:
	//DEBUG_VALUE: mas_blk_mq_request_free:rq <- $x0
	//DEBUG_VALUE: mas_blk_mq_request_free:rq <- $x0
	stp	x29, x30, [sp, #-16]!   // 16-byte Folded Spill
	mov	x29, sp
	.cfi_def_cfa w29, 16
	.cfi_offset w30, -8
	.cfi_offset w29, -16
.Ltmp218:
	.loc	2 549 2 prologue_end    // kernel/block/mas_blk_core.c:549:2
	orr	w1, wzr, #0xe
	.loc	2 547 26                // kernel/block/mas_blk_core.c:547:26
	str	xzr, [x0, #424]
	.loc	2 549 2                 // kernel/block/mas_blk_core.c:549:2
	bl	mas_blk_latency_req_check
.Ltmp219:
	.loc	2 550 1                 // kernel/block/mas_blk_core.c:550:1
	ldp	x29, x30, [sp], #16     // 16-byte Folded Reload
	ret
.Ltmp220:
.Lfunc_end26:
	.size	mas_blk_mq_request_free, .Lfunc_end26-mas_blk_mq_request_free
	.cfi_endproc
                                        // -- End function
	.section	.text.mas_blk_request_put,"ax",@progbits
	.hidden	mas_blk_request_put     // -- Begin function mas_blk_request_put
	.globl	mas_blk_request_put
	.p2align	2
	.type	mas_blk_request_put,@function
mas_blk_request_put:                    // @mas_blk_request_put
.Lfunc_begin27:
	.loc	2 556 0                 // kernel/block/mas_blk_core.c:556:0
	.cfi_startproc
// %bb.0:
	//DEBUG_VALUE: mas_blk_request_put:req <- $x0
	//DEBUG_VALUE: mas_blk_request_put:req <- $x0
	stp	x29, x30, [sp, #-16]!   // 16-byte Folded Spill
	mov	x29, sp
	.cfi_def_cfa w29, 16
	.cfi_offset w30, -8
	.cfi_offset w29, -16
.Ltmp221:
	.loc	2 559 2 prologue_end    // kernel/block/mas_blk_core.c:559:2
	orr	w1, wzr, #0xe
	.loc	2 557 27                // kernel/block/mas_blk_core.c:557:27
	str	xzr, [x0, #424]
	.loc	2 559 2                 // kernel/block/mas_blk_core.c:559:2
	bl	mas_blk_latency_req_check
.Ltmp222:
	.loc	2 560 1                 // kernel/block/mas_blk_core.c:560:1
	ldp	x29, x30, [sp], #16     // 16-byte Folded Reload
	ret
.Ltmp223:
.Lfunc_end27:
	.size	mas_blk_request_put, .Lfunc_end27-mas_blk_request_put
	.cfi_endproc
                                        // -- End function
	.section	.text.mas_blk_check_partition_done,"ax",@progbits
	.hidden	mas_blk_check_partition_done // -- Begin function mas_blk_check_partition_done
	.globl	mas_blk_check_partition_done
	.p2align	2
	.type	mas_blk_check_partition_done,@function
mas_blk_check_partition_done:           // @mas_blk_check_partition_done
.Lfunc_begin28:
	.loc	2 600 0                 // kernel/block/mas_blk_core.c:600:0
	.cfi_startproc
// %bb.0:
	//DEBUG_VALUE: mas_blk_check_partition_done:disk <- $x0
	//DEBUG_VALUE: mas_blk_check_partition_done:disk <- $x0
	.loc	2 601 8 prologue_end    // kernel/block/mas_blk_core.c:601:8
	ldr	x8, [x0, #1016]
	and	w9, w1, #0x1
.Ltmp224:
	//DEBUG_VALUE: mas_blk_check_partition_done:has_part_tbl <- $w9
	.loc	2 601 44 is_stmt 0      // kernel/block/mas_blk_core.c:601:44
	strb	w9, [x8, #1504]
	.loc	2 602 1 is_stmt 1       // kernel/block/mas_blk_core.c:602:1
	ret
.Ltmp225:
.Lfunc_end28:
	.size	mas_blk_check_partition_done, .Lfunc_end28-mas_blk_check_partition_done
	.cfi_endproc
                                        // -- End function
	.section	.text.mas_blk_allocated_queue_init,"ax",@progbits
	.hidden	mas_blk_allocated_queue_init // -- Begin function mas_blk_allocated_queue_init
	.globl	mas_blk_allocated_queue_init
	.p2align	2
	.type	mas_blk_allocated_queue_init,@function
mas_blk_allocated_queue_init:           // @mas_blk_allocated_queue_init
.Lfunc_begin29:
	.loc	2 608 0                 // kernel/block/mas_blk_core.c:608:0
	.cfi_startproc
// %bb.0:
	//DEBUG_VALUE: mas_blk_allocated_queue_init:q <- $x0
	stp	x20, x19, [sp, #-32]!   // 16-byte Folded Spill
	stp	x29, x30, [sp, #16]     // 16-byte Folded Spill
	add	x29, sp, #16            // =16
	.cfi_def_cfa w29, 16
	.cfi_offset w30, -8
	.cfi_offset w29, -16
	.cfi_offset w19, -24
	.cfi_offset w20, -32
.Ltmp226:
	.loc	2 609 31 prologue_end   // kernel/block/mas_blk_core.c:609:31
	add	x8, x0, #1656           // =1656
.Ltmp227:
	//DEBUG_VALUE: __write_once_size:res <- undef
	.loc	2 0 31 is_stmt 0        // kernel/block/mas_blk_core.c:0:31
	mov	w9, #122
.Ltmp228:
	//DEBUG_VALUE: __write_once_size:p <- $x8
	//DEBUG_VALUE: __write_once_size:size <- 8
	//DEBUG_VALUE: INIT_LIST_HEAD:list <- $x8
	.loc	136 210 31 is_stmt 1    // kernel/include/linux/compiler.h:210:31
	str	x8, [x0, #1656]
.Ltmp229:
	.loc	137 29 13               // kernel/include/linux/list.h:29:13
	str	x8, [x0, #1664]
.Ltmp230:
	//DEBUG_VALUE: mas_blk_dev_lld_init:data <- $x19
	//DEBUG_VALUE: mas_blk_dev_lld_init:type <- 0
	//DEBUG_VALUE: mas_blk_dev_lld_init:blk_lld <- [DW_OP_plus_uconst 1768, DW_OP_stack_value] $x19
	.loc	2 570 11                // kernel/block/mas_blk_core.c:570:11
	add	x8, x0, #2156           // =2156
.Ltmp231:
	.loc	2 569 22                // kernel/block/mas_blk_core.c:569:22
	str	x9, [x0, #1768]
	.loc	2 572 11                // kernel/block/mas_blk_core.c:572:11
	add	x9, x0, #2164           // =2164
.Ltmp232:
	.loc	2 610 34                // kernel/block/mas_blk_core.c:610:34
	strb	wzr, [x0, #1504]
.Ltmp233:
	.loc	2 571 2                 // kernel/block/mas_blk_core.c:571:2
	str	xzr, [x8]
	//DEBUG_VALUE: mas_blk_dev_lld_init:data <- $x19
	//DEBUG_VALUE: mas_blk_dev_lld_init:type <- 0
	//DEBUG_VALUE: mas_blk_dev_lld_init:blk_lld <- [DW_OP_plus_uconst 1768, DW_OP_stack_value] $x19
	orr	w8, wzr, #0x1
.Ltmp234:
	.loc	2 572 23                // kernel/block/mas_blk_core.c:572:23
	str	x8, [x9]
	.loc	2 577 27                // kernel/block/mas_blk_core.c:577:27
	add	x8, x0, #2176           // =2176
.Ltmp235:
	//DEBUG_VALUE: __write_once_size:p <- $x8
	//DEBUG_VALUE: __write_once_size:size <- 8
	//DEBUG_VALUE: __write_once_size:res <- undef
	//DEBUG_VALUE: INIT_LIST_HEAD:list <- $x8
	.loc	2 580 44                // kernel/block/mas_blk_core.c:580:44
	add	x20, x0, #1848          // =1848
	mov	x19, x0
.Ltmp236:
	//DEBUG_VALUE: mas_blk_allocated_queue_init:q <- $x19
	.loc	136 210 31              // kernel/include/linux/compiler.h:210:31
	str	x8, [x0, #2176]
.Ltmp237:
	.loc	137 29 13               // kernel/include/linux/list.h:29:13
	str	x8, [x0, #2184]
.Ltmp238:
	.loc	2 579 16                // kernel/block/mas_blk_core.c:579:16
	str	x0, [x0, #1776]
.Ltmp239:
	.loc	2 580 6                 // kernel/block/mas_blk_core.c:580:6
	mov	x0, x20
	bl	mas_blk_busyidle_state_init
.Ltmp240:
	.loc	2 0 0 is_stmt 0         // kernel/block/mas_blk_core.c:0:0
	ldr	x8, [x19, #1792]
	.loc	2 580 6                 // kernel/block/mas_blk_core.c:580:6
	cbz	w0, .LBB29_2
.Ltmp241:
// %bb.1:
	//DEBUG_VALUE: mas_blk_allocated_queue_init:q <- $x19
	.loc	2 581 21 is_stmt 1      // kernel/block/mas_blk_core.c:581:21
	and	x8, x8, #0xfffffffffffffff7
	str	x8, [x19, #1792]
.Ltmp242:
.LBB29_2:
	//DEBUG_VALUE: mas_blk_allocated_queue_init:q <- $x19
	.loc	2 582 6                 // kernel/block/mas_blk_core.c:582:6
	tbz	w8, #5, .LBB29_4
.Ltmp243:
// %bb.3:
	//DEBUG_VALUE: mas_blk_allocated_queue_init:q <- $x19
	.loc	2 0 6 is_stmt 0         // kernel/block/mas_blk_core.c:0:6
	orr	w9, wzr, #0x1
.Ltmp244:
	.loc	2 583 39 is_stmt 1      // kernel/block/mas_blk_core.c:583:39
	strb	w9, [x20]
.Ltmp245:
.LBB29_4:
	//DEBUG_VALUE: mas_blk_allocated_queue_init:q <- $x19
	.loc	2 588 20                // kernel/block/mas_blk_core.c:588:20
	and	x8, x8, #0xffffffffffffff3f
	orr	x8, x8, #0x40
	.loc	2 589 24                // kernel/block/mas_blk_core.c:589:24
	strb	wzr, [x19, #2152]
	.loc	2 588 20                // kernel/block/mas_blk_core.c:588:20
	str	x8, [x19, #1792]
	.loc	2 592 17                // kernel/block/mas_blk_core.c:592:17
	str	xzr, [x19, #2208]
.Ltmp246:
	.loc	2 612 1                 // kernel/block/mas_blk_core.c:612:1
	ldp	x29, x30, [sp, #16]     // 16-byte Folded Reload
	ldp	x20, x19, [sp], #32     // 16-byte Folded Reload
.Ltmp247:
	ret
.Ltmp248:
.Lfunc_end29:
	.size	mas_blk_allocated_queue_init, .Lfunc_end29-mas_blk_allocated_queue_init
	.cfi_endproc
                                        // -- End function
	.section	.text.mas_blk_sq_init_allocated_queue,"ax",@progbits
	.hidden	mas_blk_sq_init_allocated_queue // -- Begin function mas_blk_sq_init_allocated_queue
	.globl	mas_blk_sq_init_allocated_queue
	.p2align	2
	.type	mas_blk_sq_init_allocated_queue,@function
mas_blk_sq_init_allocated_queue:        // @mas_blk_sq_init_allocated_queue
.Lfunc_begin30:
	.loc	2 626 0                 // kernel/block/mas_blk_core.c:626:0
	.cfi_startproc
// %bb.0:
	//DEBUG_VALUE: mas_blk_sq_init_allocated_queue:q <- $x0
	//DEBUG_VALUE: mas_blk_queue_init_common:q <- $x0
	str	x19, [sp, #-32]!        // 8-byte Folded Spill
	stp	x29, x30, [sp, #16]     // 16-byte Folded Spill
	add	x29, sp, #16            // =16
	.cfi_def_cfa w29, 16
	.cfi_offset w30, -8
	.cfi_offset w29, -16
	.cfi_offset w19, -32
	mov	x19, x0
.Ltmp249:
	//DEBUG_VALUE: mas_blk_queue_init_common:q <- $x19
	//DEBUG_VALUE: mas_blk_sq_init_allocated_queue:q <- $x19
	.loc	2 616 2 prologue_end    // kernel/block/mas_blk_core.c:616:2
	bl	mas_blk_dump_register_queue
	.loc	2 617 2                 // kernel/block/mas_blk_core.c:617:2
	mov	x0, x19
	bl	mas_blk_queue_latency_init
	.loc	2 618 2                 // kernel/block/mas_blk_core.c:618:2
	mov	x0, x19
	bl	mas_blk_queue_async_flush_init
.Ltmp250:
	//DEBUG_VALUE: mas_blk_io_speed_adj_init:q <- $x19
	.loc	2 218 2                 // kernel/block/mas_blk_core.c:218:2
	add	x0, x19, #1704          // =1704
	mov	w1, wzr
	mov	x2, xzr
	mov	x3, xzr
	.loc	2 211 20                // kernel/block/mas_blk_core.c:211:20
	str	xzr, [x19, #1696]
	str	xzr, [x19, #1688]
	str	xzr, [x19, #1680]
	str	xzr, [x19, #1672]
	.loc	2 218 2                 // kernel/block/mas_blk_core.c:218:2
	bl	init_timer_key
	.loc	2 219 52                // kernel/block/mas_blk_core.c:219:52
	adrp	x8, _cfi_mas_blk_queue_usr_ctrl_recovery_timer_expire
	add	x8, x8, :lo12:_cfi_mas_blk_queue_usr_ctrl_recovery_timer_expire
	str	x8, [x19, #1728]
	.loc	2 221 48                // kernel/block/mas_blk_core.c:221:48
	str	x19, [x19, #1736]
.Ltmp251:
	.loc	2 628 1                 // kernel/block/mas_blk_core.c:628:1
	ldp	x29, x30, [sp, #16]     // 16-byte Folded Reload
	ldr	x19, [sp], #32          // 8-byte Folded Reload
.Ltmp252:
	ret
.Ltmp253:
.Lfunc_end30:
	.size	mas_blk_sq_init_allocated_queue, .Lfunc_end30-mas_blk_sq_init_allocated_queue
	.cfi_endproc
                                        // -- End function
	.section	.text.mas_blk_mq_init_allocated_queue,"ax",@progbits
	.hidden	mas_blk_mq_init_allocated_queue // -- Begin function mas_blk_mq_init_allocated_queue
	.globl	mas_blk_mq_init_allocated_queue
	.p2align	2
	.type	mas_blk_mq_init_allocated_queue,@function
mas_blk_mq_init_allocated_queue:        // @mas_blk_mq_init_allocated_queue
.Lfunc_begin31:
	.loc	2 634 0                 // kernel/block/mas_blk_core.c:634:0
	.cfi_startproc
// %bb.0:
	//DEBUG_VALUE: mas_blk_mq_init_allocated_queue:q <- $x0
	stp	x20, x19, [sp, #-32]!   // 16-byte Folded Spill
	stp	x29, x30, [sp, #16]     // 16-byte Folded Spill
	add	x29, sp, #16            // =16
	.cfi_def_cfa w29, 16
	.cfi_offset w30, -8
	.cfi_offset w29, -16
	.cfi_offset w19, -24
	.cfi_offset w20, -32
.Ltmp254:
	.loc	2 636 34 prologue_end   // kernel/block/mas_blk_core.c:636:34
	ldr	x20, [x0, #2720]
.Ltmp255:
	//DEBUG_VALUE: mas_blk_mq_init_allocated_queue:i <- 0
	//DEBUG_VALUE: mas_blk_mq_init_allocated_queue:set <- $x20
	.loc	2 0 34 is_stmt 0        // kernel/block/mas_blk_core.c:0:34
	mov	x19, x0
.Ltmp256:
	//DEBUG_VALUE: mas_blk_mq_init_allocated_queue:q <- $x19
	.loc	2 638 23 is_stmt 1      // kernel/block/mas_blk_core.c:638:23
	ldr	w8, [x20, #476]
.Ltmp257:
	.loc	2 638 2 is_stmt 0       // kernel/block/mas_blk_core.c:638:2
	cbz	w8, .LBB31_5
.Ltmp258:
// %bb.1:
	//DEBUG_VALUE: mas_blk_mq_init_allocated_queue:q <- $x19
	//DEBUG_VALUE: mas_blk_mq_init_allocated_queue:set <- $x20
	.loc	2 0 2                   // kernel/block/mas_blk_core.c:0:2
	mov	x9, xzr
.Ltmp259:
.LBB31_2:                               // =>This Inner Loop Header: Depth=1
	//DEBUG_VALUE: mas_blk_mq_init_allocated_queue:q <- $x19
	//DEBUG_VALUE: mas_blk_mq_init_allocated_queue:set <- $x20
	//DEBUG_VALUE: mas_blk_mq_init_allocated_queue:i <- $x9
	.loc	2 639 13 is_stmt 1      // kernel/block/mas_blk_core.c:639:13
	ldr	x10, [x20, #512]
	.loc	2 639 8 is_stmt 0       // kernel/block/mas_blk_core.c:639:8
	ldr	x10, [x10, x9, lsl #3]
.Ltmp260:
	.loc	2 639 7                 // kernel/block/mas_blk_core.c:639:7
	cbz	x10, .LBB31_4
.Ltmp261:
// %bb.3:                               //   in Loop: Header=BB31_2 Depth=1
	//DEBUG_VALUE: mas_blk_mq_init_allocated_queue:i <- $x9
	//DEBUG_VALUE: mas_blk_mq_init_allocated_queue:q <- $x19
	//DEBUG_VALUE: mas_blk_mq_init_allocated_queue:set <- $x20
	.loc	2 641 21 is_stmt 1      // kernel/block/mas_blk_core.c:641:21
	str	x20, [x10, #24]
.Ltmp262:
	.loc	2 638 23                // kernel/block/mas_blk_core.c:638:23
	ldr	w8, [x20, #476]
.Ltmp263:
.LBB31_4:                               //   in Loop: Header=BB31_2 Depth=1
	//DEBUG_VALUE: mas_blk_mq_init_allocated_queue:i <- $x9
	//DEBUG_VALUE: mas_blk_mq_init_allocated_queue:q <- $x19
	//DEBUG_VALUE: mas_blk_mq_init_allocated_queue:set <- $x20
	.loc	2 638 38 is_stmt 0      // kernel/block/mas_blk_core.c:638:38
	add	x9, x9, #1              // =1
.Ltmp264:
	//DEBUG_VALUE: mas_blk_mq_init_allocated_queue:i <- [DW_OP_plus_uconst 1, DW_OP_stack_value] undef
	.loc	2 638 2                 // kernel/block/mas_blk_core.c:638:2
	cmp	x9, w8, uxtw
	b.lo	.LBB31_2
.Ltmp265:
.LBB31_5:
	//DEBUG_VALUE: mas_blk_mq_init_allocated_queue:q <- $x19
	//DEBUG_VALUE: mas_blk_mq_init_allocated_queue:set <- $x20
	//DEBUG_VALUE: mas_blk_queue_init_common:q <- $x19
	.loc	2 616 2 is_stmt 1       // kernel/block/mas_blk_core.c:616:2
	mov	x0, x19
	bl	mas_blk_dump_register_queue
	.loc	2 617 2                 // kernel/block/mas_blk_core.c:617:2
	mov	x0, x19
	bl	mas_blk_queue_latency_init
	.loc	2 618 2                 // kernel/block/mas_blk_core.c:618:2
	mov	x0, x19
	bl	mas_blk_queue_async_flush_init
.Ltmp266:
	//DEBUG_VALUE: mas_blk_io_speed_adj_init:q <- $x19
	.loc	2 218 2                 // kernel/block/mas_blk_core.c:218:2
	add	x0, x19, #1704          // =1704
	mov	w1, wzr
	mov	x2, xzr
	mov	x3, xzr
	.loc	2 211 20                // kernel/block/mas_blk_core.c:211:20
	str	xzr, [x19, #1696]
	str	xzr, [x19, #1688]
	str	xzr, [x19, #1680]
	str	xzr, [x19, #1672]
	.loc	2 218 2                 // kernel/block/mas_blk_core.c:218:2
	bl	init_timer_key
	.loc	2 219 52                // kernel/block/mas_blk_core.c:219:52
	adrp	x8, _cfi_mas_blk_queue_usr_ctrl_recovery_timer_expire
	add	x8, x8, :lo12:_cfi_mas_blk_queue_usr_ctrl_recovery_timer_expire
	str	x8, [x19, #1728]
	.loc	2 221 48                // kernel/block/mas_blk_core.c:221:48
	str	x19, [x19, #1736]
.Ltmp267:
	.loc	2 647 8                 // kernel/block/mas_blk_core.c:647:8
	ldr	x8, [x20, #464]
	.loc	2 647 3 is_stmt 0       // kernel/block/mas_blk_core.c:647:3
	cbz	x8, .LBB31_10
.Ltmp268:
// %bb.6:
	//DEBUG_VALUE: mas_blk_mq_init_allocated_queue:q <- $x19
	//DEBUG_VALUE: mas_blk_mq_init_allocated_queue:set <- $x20
	.loc	2 647 46                // kernel/block/mas_blk_core.c:647:46
	ldr	x8, [x8, #40]
	.loc	2 646 19 is_stmt 1      // kernel/block/mas_blk_core.c:646:19
	str	x8, [x19, #1760]
.Ltmp269:
	.loc	2 648 23                // kernel/block/mas_blk_core.c:648:23
	cbz	x8, .LBB31_11
.Ltmp270:
// %bb.7:
	//DEBUG_VALUE: mas_blk_mq_init_allocated_queue:q <- $x19
	//DEBUG_VALUE: mas_blk_mq_init_allocated_queue:set <- $x20
	.loc	2 648 44 is_stmt 0      // kernel/block/mas_blk_core.c:648:44
	ldr	x8, [x8, #8]
.Ltmp271:
	.loc	2 648 6                 // kernel/block/mas_blk_core.c:648:6
	cbz	x8, .LBB31_11
.Ltmp272:
// %bb.8:
	//DEBUG_VALUE: mas_blk_mq_init_allocated_queue:q <- $x19
	//DEBUG_VALUE: mas_blk_mq_init_allocated_queue:set <- $x20
	.loc	2 649 13 is_stmt 1      // kernel/block/mas_blk_core.c:649:13
	mov	x0, x19
	blr	x8
	.loc	2 650 7                 // kernel/block/mas_blk_core.c:650:7
	cbz	w0, .LBB31_11
.Ltmp273:
// %bb.9:
	//DEBUG_VALUE: mas_blk_mq_init_allocated_queue:q <- $x19
	//DEBUG_VALUE: mas_blk_mq_init_allocated_queue:set <- $x20
	.loc	2 0 0 is_stmt 0         // kernel/block/mas_blk_core.c:0:0
	mov	w2, w0
.Ltmp274:
	//DEBUG_VALUE: ret <- $w2
	.loc	2 651 4 is_stmt 1       // kernel/block/mas_blk_core.c:651:4
	adrp	x0, .L.str.1
	adrp	x1, .L__func__.mas_blk_mq_init_allocated_queue
	add	x0, x0, :lo12:.L.str.1
	add	x1, x1, :lo12:.L__func__.mas_blk_mq_init_allocated_queue
	bl	printk
.Ltmp275:
	.loc	2 0 4 is_stmt 0         // kernel/block/mas_blk_core.c:0:4
	b	.LBB31_11
.Ltmp276:
.LBB31_10:
	//DEBUG_VALUE: mas_blk_mq_init_allocated_queue:q <- $x19
	//DEBUG_VALUE: mas_blk_mq_init_allocated_queue:set <- $x20
	.loc	2 646 19 is_stmt 1      // kernel/block/mas_blk_core.c:646:19
	str	xzr, [x19, #1760]
.Ltmp277:
.LBB31_11:
	//DEBUG_VALUE: mas_blk_mq_init_allocated_queue:q <- $x19
	//DEBUG_VALUE: mas_blk_mq_init_allocated_queue:set <- $x20
	.loc	2 656 1                 // kernel/block/mas_blk_core.c:656:1
	ldp	x29, x30, [sp, #16]     // 16-byte Folded Reload
	ldp	x20, x19, [sp], #32     // 16-byte Folded Reload
.Ltmp278:
	ret
.Ltmp279:
.Lfunc_end31:
	.size	mas_blk_mq_init_allocated_queue, .Lfunc_end31-mas_blk_mq_init_allocated_queue
	.cfi_endproc
                                        // -- End function
	.section	.text.mas_blk_mq_free_queue,"ax",@progbits
	.hidden	mas_blk_mq_free_queue   // -- Begin function mas_blk_mq_free_queue
	.globl	mas_blk_mq_free_queue
	.p2align	2
	.type	mas_blk_mq_free_queue,@function
mas_blk_mq_free_queue:                  // @mas_blk_mq_free_queue
.Lfunc_begin32:
	.loc	2 662 0                 // kernel/block/mas_blk_core.c:662:0
	.cfi_startproc
// %bb.0:
	//DEBUG_VALUE: mas_blk_mq_free_queue:q <- $x0
	//DEBUG_VALUE: mas_blk_mq_free_queue:q <- $x0
	.loc	2 663 9 prologue_end    // kernel/block/mas_blk_core.c:663:9
	ldr	x8, [x0, #1760]
	.loc	2 663 23 is_stmt 0      // kernel/block/mas_blk_core.c:663:23
	cbz	x8, .LBB32_3
.Ltmp280:
// %bb.1:
	//DEBUG_VALUE: mas_blk_mq_free_queue:q <- $x0
	.loc	2 663 44                // kernel/block/mas_blk_core.c:663:44
	ldr	x8, [x8, #16]
.Ltmp281:
	.loc	2 663 6                 // kernel/block/mas_blk_core.c:663:6
	cbz	x8, .LBB32_3
.Ltmp282:
// %bb.2:
	//DEBUG_VALUE: mas_blk_mq_free_queue:q <- $x0
	stp	x29, x30, [sp, #-16]!   // 16-byte Folded Spill
	mov	x29, sp
	.cfi_def_cfa w29, 16
	.cfi_offset w30, -8
	.cfi_offset w29, -16
.Ltmp283:
	.loc	2 664 3 is_stmt 1       // kernel/block/mas_blk_core.c:664:3
	blr	x8
.Ltmp284:
	.loc	2 0 3 is_stmt 0         // kernel/block/mas_blk_core.c:0:3
	ldp	x29, x30, [sp], #16     // 16-byte Folded Reload
.Ltmp285:
.LBB32_3:
	.loc	2 666 1 is_stmt 1       // kernel/block/mas_blk_core.c:666:1
	ret
.Ltmp286:
.Lfunc_end32:
	.size	mas_blk_mq_free_queue, .Lfunc_end32-mas_blk_mq_free_queue
	.cfi_endproc
                                        // -- End function
	.section	.text.mas_blk_cleanup_queue,"ax",@progbits
	.hidden	mas_blk_cleanup_queue   // -- Begin function mas_blk_cleanup_queue
	.globl	mas_blk_cleanup_queue
	.p2align	2
	.type	mas_blk_cleanup_queue,@function
mas_blk_cleanup_queue:                  // @mas_blk_cleanup_queue
.Lfunc_begin33:
	.loc	2 672 0                 // kernel/block/mas_blk_core.c:672:0
	.cfi_startproc
// %bb.0:
	//DEBUG_VALUE: mas_blk_cleanup_queue:q <- $x0
	str	x19, [sp, #-32]!        // 8-byte Folded Spill
	stp	x29, x30, [sp, #16]     // 16-byte Folded Spill
	add	x29, sp, #16            // =16
	.cfi_def_cfa w29, 16
	.cfi_offset w30, -8
	.cfi_offset w29, -16
	.cfi_offset w19, -32
	mov	x19, x0
.Ltmp287:
	//DEBUG_VALUE: mas_blk_cleanup_queue:q <- $x19
	.loc	2 673 2 prologue_end    // kernel/block/mas_blk_core.c:673:2
	bl	mas_blk_dump_unregister_queue
.Ltmp288:
	//DEBUG_VALUE: mas_blk_io_speed_adj_deinit:q <- $x19
	.loc	2 205 31                // kernel/block/mas_blk_core.c:205:31
	add	x0, x19, #1704          // =1704
	.loc	2 205 2 is_stmt 0       // kernel/block/mas_blk_core.c:205:2
	bl	del_timer_sync
.Ltmp289:
	.loc	2 675 2 is_stmt 1       // kernel/block/mas_blk_core.c:675:2
	mov	x0, x19
	bl	mas_blk_flush_reduced_queue_unregister
	.loc	2 676 1                 // kernel/block/mas_blk_core.c:676:1
	ldp	x29, x30, [sp, #16]     // 16-byte Folded Reload
	ldr	x19, [sp], #32          // 8-byte Folded Reload
.Ltmp290:
	ret
.Ltmp291:
.Lfunc_end33:
	.size	mas_blk_cleanup_queue, .Lfunc_end33-mas_blk_cleanup_queue
	.cfi_endproc
                                        // -- End function
	.section	.text.mas_blk_allocated_tags_init,"ax",@progbits
	.hidden	mas_blk_allocated_tags_init // -- Begin function mas_blk_allocated_tags_init
	.globl	mas_blk_allocated_tags_init
	.p2align	2
	.type	mas_blk_allocated_tags_init,@function
mas_blk_allocated_tags_init:            // @mas_blk_allocated_tags_init
.Lfunc_begin34:
	.loc	2 682 0                 // kernel/block/mas_blk_core.c:682:0
	.cfi_startproc
// %bb.0:
	//DEBUG_VALUE: mas_blk_allocated_tags_init:tags <- $x0
	stp	x20, x19, [sp, #-32]!   // 16-byte Folded Spill
	stp	x29, x30, [sp, #16]     // 16-byte Folded Spill
	add	x29, sp, #16            // =16
	.cfi_def_cfa w29, 16
	.cfi_offset w30, -8
	.cfi_offset w29, -16
	.cfi_offset w19, -24
	.cfi_offset w20, -32
.Ltmp292:
	.loc	2 683 2 prologue_end    // kernel/block/mas_blk_core.c:683:2
	adrp	x1, .L.str.2
	adrp	x2, mas_blk_allocated_tags_init.__key
	mov	x19, x0
.Ltmp293:
	//DEBUG_VALUE: mas_blk_allocated_tags_init:tags <- $x19
	add	x0, x0, #40             // =40
	add	x1, x1, :lo12:.L.str.2
	add	x2, x2, :lo12:mas_blk_allocated_tags_init.__key
	bl	__mutex_init
.Ltmp294:
	.loc	2 684 24                // kernel/block/mas_blk_core.c:684:24
	add	x8, x19, #72            // =72
.Ltmp295:
	//DEBUG_VALUE: __write_once_size:p <- $x8
	//DEBUG_VALUE: __write_once_size:size <- 8
	//DEBUG_VALUE: __write_once_size:res <- undef
	//DEBUG_VALUE: INIT_LIST_HEAD:list <- $x8
	.loc	2 0 24 is_stmt 0        // kernel/block/mas_blk_core.c:0:24
	add	x0, x19, #104           // =104
	.loc	2 685 2 is_stmt 1       // kernel/block/mas_blk_core.c:685:2
	mov	w2, #432
	mov	w1, wzr
.Ltmp296:
	.loc	136 210 31              // kernel/include/linux/compiler.h:210:31
	str	x8, [x19, #72]
.Ltmp297:
	.loc	137 29 13               // kernel/include/linux/list.h:29:13
	str	x8, [x19, #80]
.Ltmp298:
	.loc	2 685 2                 // kernel/block/mas_blk_core.c:685:2
	bl	memset
.Ltmp299:
	.loc	2 0 2 is_stmt 0         // kernel/block/mas_blk_core.c:0:2
	mov	x8, #122
.Ltmp300:
	.loc	2 580 44 is_stmt 1      // kernel/block/mas_blk_core.c:580:44
	add	x20, x19, #168          // =168
	movk	x8, #1, lsl #32
.Ltmp301:
	//DEBUG_VALUE: mas_blk_dev_lld_init:data <- $x19
	//DEBUG_VALUE: mas_blk_dev_lld_init:type <- 1
	//DEBUG_VALUE: mas_blk_dev_lld_init:blk_lld <- [DW_OP_plus_uconst 88, DW_OP_stack_value] $x19
	.loc	2 570 11                // kernel/block/mas_blk_core.c:570:11
	add	x9, x19, #476           // =476
	.loc	2 572 11                // kernel/block/mas_blk_core.c:572:11
	add	x10, x19, #484          // =484
	orr	w11, wzr, #0x1
	.loc	2 577 27                // kernel/block/mas_blk_core.c:577:27
	add	x12, x19, #496          // =496
.Ltmp302:
	//DEBUG_VALUE: __write_once_size:res <- undef
	.loc	2 580 6                 // kernel/block/mas_blk_core.c:580:6
	mov	x0, x20
.Ltmp303:
	.loc	2 569 22                // kernel/block/mas_blk_core.c:569:22
	stp	x8, x19, [x19, #88]
.Ltmp304:
	.loc	2 571 2                 // kernel/block/mas_blk_core.c:571:2
	str	xzr, [x9]
.Ltmp305:
	.loc	2 572 23                // kernel/block/mas_blk_core.c:572:23
	str	x11, [x10]
.Ltmp306:
	//DEBUG_VALUE: __write_once_size:p <- $x12
	//DEBUG_VALUE: __write_once_size:size <- 8
	//DEBUG_VALUE: INIT_LIST_HEAD:list <- $x12
	.loc	136 210 31              // kernel/include/linux/compiler.h:210:31
	str	x12, [x19, #496]
.Ltmp307:
	.loc	137 29 13               // kernel/include/linux/list.h:29:13
	str	x12, [x19, #504]
.Ltmp308:
	.loc	2 580 6                 // kernel/block/mas_blk_core.c:580:6
	bl	mas_blk_busyidle_state_init
.Ltmp309:
	.loc	2 0 0 is_stmt 0         // kernel/block/mas_blk_core.c:0:0
	ldr	x8, [x19, #112]
	.loc	2 580 6                 // kernel/block/mas_blk_core.c:580:6
	cbz	w0, .LBB34_2
.Ltmp310:
// %bb.1:
	//DEBUG_VALUE: mas_blk_dev_lld_init:blk_lld <- [DW_OP_plus_uconst 88, DW_OP_stack_value] $x19
	//DEBUG_VALUE: mas_blk_dev_lld_init:data <- $x19
	//DEBUG_VALUE: mas_blk_allocated_tags_init:tags <- $x19
	.loc	2 581 21 is_stmt 1      // kernel/block/mas_blk_core.c:581:21
	and	x8, x8, #0xfffffffffffffff7
	str	x8, [x19, #112]
.Ltmp311:
.LBB34_2:
	//DEBUG_VALUE: mas_blk_dev_lld_init:blk_lld <- [DW_OP_plus_uconst 88, DW_OP_stack_value] $x19
	//DEBUG_VALUE: mas_blk_dev_lld_init:data <- $x19
	//DEBUG_VALUE: mas_blk_allocated_tags_init:tags <- $x19
	.loc	2 582 6                 // kernel/block/mas_blk_core.c:582:6
	tbz	w8, #5, .LBB34_4
.Ltmp312:
// %bb.3:
	//DEBUG_VALUE: mas_blk_dev_lld_init:blk_lld <- [DW_OP_plus_uconst 88, DW_OP_stack_value] $x19
	//DEBUG_VALUE: mas_blk_dev_lld_init:data <- $x19
	//DEBUG_VALUE: mas_blk_allocated_tags_init:tags <- $x19
	.loc	2 0 6 is_stmt 0         // kernel/block/mas_blk_core.c:0:6
	orr	w9, wzr, #0x1
.Ltmp313:
	.loc	2 583 39 is_stmt 1      // kernel/block/mas_blk_core.c:583:39
	strb	w9, [x20]
.Ltmp314:
.LBB34_4:
	//DEBUG_VALUE: mas_blk_dev_lld_init:blk_lld <- [DW_OP_plus_uconst 88, DW_OP_stack_value] $x19
	//DEBUG_VALUE: mas_blk_dev_lld_init:data <- $x19
	//DEBUG_VALUE: mas_blk_allocated_tags_init:tags <- $x19
	.loc	2 588 20                // kernel/block/mas_blk_core.c:588:20
	and	x8, x8, #0xffffffffffffff3f
	orr	x8, x8, #0x40
	.loc	2 589 24                // kernel/block/mas_blk_core.c:589:24
	strb	wzr, [x19, #472]
	.loc	2 588 20                // kernel/block/mas_blk_core.c:588:20
	str	x8, [x19, #112]
	.loc	2 592 17                // kernel/block/mas_blk_core.c:592:17
	str	xzr, [x19, #528]
.Ltmp315:
	.loc	2 688 1                 // kernel/block/mas_blk_core.c:688:1
	ldp	x29, x30, [sp, #16]     // 16-byte Folded Reload
	ldp	x20, x19, [sp], #32     // 16-byte Folded Reload
.Ltmp316:
	ret
.Ltmp317:
.Lfunc_end34:
	.size	mas_blk_allocated_tags_init, .Lfunc_end34-mas_blk_allocated_tags_init
	.cfi_endproc
                                        // -- End function
	.section	.text.blk_add_queue_tags,"ax",@progbits
	.hidden	blk_add_queue_tags      // -- Begin function blk_add_queue_tags
	.globl	blk_add_queue_tags
	.p2align	2
	.type	blk_add_queue_tags,@function
blk_add_queue_tags:                     // @blk_add_queue_tags
.Lfunc_begin35:
	.loc	2 694 0                 // kernel/block/mas_blk_core.c:694:0
	.cfi_startproc
// %bb.0:
	//DEBUG_VALUE: blk_add_queue_tags:tags <- $x0
	//DEBUG_VALUE: blk_add_queue_tags:q <- $x1
	str	x21, [sp, #-48]!        // 8-byte Folded Spill
	stp	x20, x19, [sp, #16]     // 16-byte Folded Spill
	stp	x29, x30, [sp, #32]     // 16-byte Folded Spill
	add	x29, sp, #32            // =32
	.cfi_def_cfa w29, 16
	.cfi_offset w30, -8
	.cfi_offset w29, -16
	.cfi_offset w19, -24
	.cfi_offset w20, -32
	.cfi_offset w21, -48
.Ltmp318:
	.loc	2 695 20 prologue_end   // kernel/block/mas_blk_core.c:695:20
	add	x21, x0, #40            // =40
	mov	x20, x0
.Ltmp319:
	//DEBUG_VALUE: blk_add_queue_tags:q <- $x19
	//DEBUG_VALUE: blk_add_queue_tags:tags <- $x20
	.loc	2 695 2 is_stmt 0       // kernel/block/mas_blk_core.c:695:2
	mov	x0, x21
	mov	x19, x1
.Ltmp320:
	bl	mutex_lock
.Ltmp321:
	.loc	137 93 24 is_stmt 1     // kernel/include/linux/list.h:93:24
	ldr	x9, [x20, #80]
.Ltmp322:
	.loc	2 696 20                // kernel/block/mas_blk_core.c:696:20
	add	x8, x19, #2728          // =2728
.Ltmp323:
	//DEBUG_VALUE: list_add_tail:new <- $x8
	.loc	2 696 41 is_stmt 0      // kernel/block/mas_blk_core.c:696:41
	add	x10, x20, #72           // =72
.Ltmp324:
	//DEBUG_VALUE: list_add_tail:head <- $x10
	//DEBUG_VALUE: __list_add:next <- $x10
	//DEBUG_VALUE: __list_add:prev <- $x9
	//DEBUG_VALUE: __list_add:new <- $x8
	.loc	2 697 2 is_stmt 1       // kernel/block/mas_blk_core.c:697:2
	mov	x0, x21
.Ltmp325:
	.loc	137 63 13               // kernel/include/linux/list.h:63:13
	str	x8, [x20, #80]
	//DEBUG_VALUE: list_add_tail:new <- $x8
	.loc	137 64 12               // kernel/include/linux/list.h:64:12
	str	x10, [x19, #2728]
	.loc	137 65 12               // kernel/include/linux/list.h:65:12
	str	x9, [x19, #2736]
.Ltmp326:
	//DEBUG_VALUE: __write_once_size:p <- $x9
	//DEBUG_VALUE: __write_once_size:size <- 8
	//DEBUG_VALUE: __write_once_size:res <- undef
	.loc	136 210 31              // kernel/include/linux/compiler.h:210:31
	str	x8, [x9]
.Ltmp327:
	.loc	2 697 2                 // kernel/block/mas_blk_core.c:697:2
	bl	mutex_unlock
.Ltmp328:
	.loc	2 698 1                 // kernel/block/mas_blk_core.c:698:1
	ldp	x29, x30, [sp, #32]     // 16-byte Folded Reload
	ldp	x20, x19, [sp, #16]     // 16-byte Folded Reload
.Ltmp329:
	ldr	x21, [sp], #48          // 8-byte Folded Reload
	ret
.Ltmp330:
.Lfunc_end35:
	.size	blk_add_queue_tags, .Lfunc_end35-blk_add_queue_tags
	.cfi_endproc
                                        // -- End function
	.section	.text.mas_blk_mq_allocated_tagset_init,"ax",@progbits
	.hidden	mas_blk_mq_allocated_tagset_init // -- Begin function mas_blk_mq_allocated_tagset_init
	.globl	mas_blk_mq_allocated_tagset_init
	.p2align	2
	.type	mas_blk_mq_allocated_tagset_init,@function
mas_blk_mq_allocated_tagset_init:       // @mas_blk_mq_allocated_tagset_init
.Lfunc_begin36:
	.loc	2 704 0                 // kernel/block/mas_blk_core.c:704:0
	.cfi_startproc
// %bb.0:
	//DEBUG_VALUE: mas_blk_mq_allocated_tagset_init:set <- $x0
	//DEBUG_VALUE: mas_blk_dev_lld_init:blk_lld <- [DW_OP_plus_uconst 16, DW_OP_stack_value] $x0
	//DEBUG_VALUE: mas_blk_dev_lld_init:data <- $x0
	stp	x20, x19, [sp, #-32]!   // 16-byte Folded Spill
	stp	x29, x30, [sp, #16]     // 16-byte Folded Spill
	add	x29, sp, #16            // =16
	.cfi_def_cfa w29, 16
	.cfi_offset w30, -8
	.cfi_offset w29, -16
	.cfi_offset w19, -24
	.cfi_offset w20, -32
	mov	x8, #122
	movk	x8, #2, lsl #32
.Ltmp331:
	//DEBUG_VALUE: mas_blk_dev_lld_init:type <- 2
	//DEBUG_VALUE: mas_blk_dev_lld_init:data <- $x19
	//DEBUG_VALUE: mas_blk_dev_lld_init:blk_lld <- [DW_OP_plus_uconst 16, DW_OP_stack_value] $x19
	//DEBUG_VALUE: mas_blk_mq_allocated_tagset_init:set <- $x19
	.loc	2 570 11 prologue_end   // kernel/block/mas_blk_core.c:570:11
	add	x9, x0, #404            // =404
	.loc	2 572 11                // kernel/block/mas_blk_core.c:572:11
	add	x10, x0, #412           // =412
	orr	w11, wzr, #0x1
	.loc	2 577 27                // kernel/block/mas_blk_core.c:577:27
	add	x12, x0, #424           // =424
.Ltmp332:
	//DEBUG_VALUE: __write_once_size:res <- undef
	.loc	2 580 44                // kernel/block/mas_blk_core.c:580:44
	add	x20, x0, #96            // =96
	mov	x19, x0
.Ltmp333:
	.loc	2 569 22                // kernel/block/mas_blk_core.c:569:22
	stp	x8, x0, [x0, #16]
.Ltmp334:
	.loc	2 571 2                 // kernel/block/mas_blk_core.c:571:2
	str	xzr, [x9]
.Ltmp335:
	.loc	2 572 23                // kernel/block/mas_blk_core.c:572:23
	str	x11, [x10]
.Ltmp336:
	//DEBUG_VALUE: __write_once_size:p <- $x12
	//DEBUG_VALUE: __write_once_size:size <- 8
	//DEBUG_VALUE: INIT_LIST_HEAD:list <- $x12
	.loc	136 210 31              // kernel/include/linux/compiler.h:210:31
	str	x12, [x0, #424]
.Ltmp337:
	.loc	137 29 13               // kernel/include/linux/list.h:29:13
	str	x12, [x0, #432]
.Ltmp338:
	.loc	2 580 6                 // kernel/block/mas_blk_core.c:580:6
	mov	x0, x20
	bl	mas_blk_busyidle_state_init
.Ltmp339:
	.loc	2 0 0 is_stmt 0         // kernel/block/mas_blk_core.c:0:0
	ldr	x8, [x19, #40]
	.loc	2 580 6                 // kernel/block/mas_blk_core.c:580:6
	cbz	w0, .LBB36_2
// %bb.1:
.Ltmp340:
	.loc	2 581 21 is_stmt 1      // kernel/block/mas_blk_core.c:581:21
	and	x8, x8, #0xfffffffffffffff7
	str	x8, [x19, #40]
.Ltmp341:
.LBB36_2:
	.loc	2 582 6                 // kernel/block/mas_blk_core.c:582:6
	tbz	w8, #5, .LBB36_4
// %bb.3:
	.loc	2 0 6 is_stmt 0         // kernel/block/mas_blk_core.c:0:6
	orr	w9, wzr, #0x1
.Ltmp342:
	.loc	2 583 39 is_stmt 1      // kernel/block/mas_blk_core.c:583:39
	strb	w9, [x20]
.Ltmp343:
.LBB36_4:
	.loc	2 0 39 is_stmt 0        // kernel/block/mas_blk_core.c:0:39
	adrp	x10, mas_ufs_blk_tagset_ops
	.loc	2 588 20 is_stmt 1      // kernel/block/mas_blk_core.c:588:20
	and	x9, x8, #0xffffffffffffff3f
.Ltmp344:
	.loc	2 710 29                // kernel/block/mas_blk_core.c:710:29
	lsl	x8, x8, #59
	add	x10, x10, :lo12:mas_ufs_blk_tagset_ops
.Ltmp345:
	.loc	2 588 20                // kernel/block/mas_blk_core.c:588:20
	orr	x9, x9, #0x40
	and	x8, x10, x8, asr #63
	.loc	2 589 24                // kernel/block/mas_blk_core.c:589:24
	strb	wzr, [x19, #400]
	.loc	2 588 20                // kernel/block/mas_blk_core.c:588:20
	str	x9, [x19, #40]
	.loc	2 592 17                // kernel/block/mas_blk_core.c:592:17
	stp	xzr, x8, [x19, #456]
.Ltmp346:
	.loc	2 718 1                 // kernel/block/mas_blk_core.c:718:1
	ldp	x29, x30, [sp, #16]     // 16-byte Folded Reload
	ldp	x20, x19, [sp], #32     // 16-byte Folded Reload
	ret
.Ltmp347:
.Lfunc_end36:
	.size	mas_blk_mq_allocated_tagset_init, .Lfunc_end36-mas_blk_mq_allocated_tagset_init
	.cfi_endproc
                                        // -- End function
	.section	.text.mas_blk_queue_register,"ax",@progbits
	.hidden	mas_blk_queue_register  // -- Begin function mas_blk_queue_register
	.globl	mas_blk_queue_register
	.p2align	2
	.type	mas_blk_queue_register,@function
mas_blk_queue_register:                 // @mas_blk_queue_register
.Lfunc_begin37:
	.loc	2 725 0                 // kernel/block/mas_blk_core.c:725:0
	.cfi_startproc
// %bb.0:
	//DEBUG_VALUE: mas_blk_queue_register:q <- $x0
	//DEBUG_VALUE: mas_blk_queue_register:q <- $x0
	//DEBUG_VALUE: mas_blk_queue_register:disk <- $x1
	//DEBUG_VALUE: mas_blk_queue_register:disk <- $x1
	.loc	2 726 26 prologue_end   // kernel/block/mas_blk_core.c:726:26
	str	x1, [x0, #1496]
	.loc	2 727 1                 // kernel/block/mas_blk_core.c:727:1
	ret
.Ltmp348:
.Lfunc_end37:
	.size	mas_blk_queue_register, .Lfunc_end37-mas_blk_queue_register
	.cfi_endproc
                                        // -- End function
	.section	.init.text,"ax",@progbits
	.hidden	mas_blk_dev_init        // -- Begin function mas_blk_dev_init
	.globl	mas_blk_dev_init
	.p2align	2
	.type	mas_blk_dev_init,@function
mas_blk_dev_init:                       // @mas_blk_dev_init
.Lfunc_begin38:
	.loc	2 733 0                 // kernel/block/mas_blk_core.c:733:0
	.cfi_startproc
// %bb.0:
	stp	x29, x30, [sp, #-16]!   // 16-byte Folded Spill
	mov	x29, sp
	.cfi_def_cfa w29, 16
	.cfi_offset w30, -8
	.cfi_offset w29, -16
.Ltmp349:
	.loc	2 734 2 prologue_end    // kernel/block/mas_blk_core.c:734:2
	bl	mas_blk_dump_init
	.loc	2 735 2                 // kernel/block/mas_blk_core.c:735:2
	bl	mas_blk_latency_init
	.loc	2 736 2                 // kernel/block/mas_blk_core.c:736:2
	bl	mas_blk_dsm_init
	.loc	2 737 2                 // kernel/block/mas_blk_core.c:737:2
	mov	w0, wzr
	ldp	x29, x30, [sp], #16     // 16-byte Folded Reload
	ret
.Ltmp350:
.Lfunc_end38:
	.size	mas_blk_dev_init, .Lfunc_end38-mas_blk_dev_init
	.cfi_endproc
                                        // -- End function
	.section	.text.blk_write_throttle,"ax",@progbits
	.hidden	blk_write_throttle      // -- Begin function blk_write_throttle
	.globl	blk_write_throttle
	.p2align	2
	.type	blk_write_throttle,@function
blk_write_throttle:                     // @blk_write_throttle
.Lfunc_begin39:
	.loc	2 741 0                 // kernel/block/mas_blk_core.c:741:0
	.cfi_startproc
// %bb.0:
	//DEBUG_VALUE: blk_write_throttle:queue <- $x0
	//DEBUG_VALUE: blk_write_throttle:queue <- $x0
	//DEBUG_VALUE: blk_write_throttle:level <- $w1
	//DEBUG_VALUE: blk_write_throttle:level <- $w1
	.loc	2 742 12 prologue_end   // kernel/block/mas_blk_core.c:742:12
	cbz	x0, .LBB39_4
.Ltmp351:
// %bb.1:
	//DEBUG_VALUE: blk_write_throttle:level <- $w1
	//DEBUG_VALUE: blk_write_throttle:queue <- $x0
	.loc	2 742 22 is_stmt 0      // kernel/block/mas_blk_core.c:742:22
	ldr	x8, [x0, #1760]
	.loc	2 742 36                // kernel/block/mas_blk_core.c:742:36
	cbz	x8, .LBB39_4
.Ltmp352:
// %bb.2:
	//DEBUG_VALUE: blk_write_throttle:level <- $w1
	//DEBUG_VALUE: blk_write_throttle:queue <- $x0
	.loc	2 743 28 is_stmt 1      // kernel/block/mas_blk_core.c:743:28
	ldr	x8, [x8, #160]
.Ltmp353:
	.loc	2 742 6                 // kernel/block/mas_blk_core.c:742:6
	cbz	x8, .LBB39_4
.Ltmp354:
// %bb.3:
	//DEBUG_VALUE: blk_write_throttle:level <- $w1
	//DEBUG_VALUE: blk_write_throttle:queue <- $x0
	stp	x29, x30, [sp, #-16]!   // 16-byte Folded Spill
	mov	x29, sp
	.cfi_def_cfa w29, 16
	.cfi_offset w30, -8
	.cfi_offset w29, -16
.Ltmp355:
	.loc	2 744 54                // kernel/block/mas_blk_core.c:744:54
	cmp	w1, #0                  // =0
	cset	w1, ne
.Ltmp356:
	.loc	2 744 3 is_stmt 0       // kernel/block/mas_blk_core.c:744:3
	blr	x8
.Ltmp357:
	.loc	2 0 3                   // kernel/block/mas_blk_core.c:0:3
	ldp	x29, x30, [sp], #16     // 16-byte Folded Reload
.Ltmp358:
.LBB39_4:
	.loc	2 745 1 is_stmt 1       // kernel/block/mas_blk_core.c:745:1
	ret
.Ltmp359:
.Lfunc_end39:
	.size	blk_write_throttle, .Lfunc_end39-blk_write_throttle
	.cfi_endproc
                                        // -- End function
	.section	.text.blk_generic_freeze,"ax",@progbits
	.hidden	blk_generic_freeze      // -- Begin function blk_generic_freeze
	.globl	blk_generic_freeze
	.p2align	2
	.type	blk_generic_freeze,@function
blk_generic_freeze:                     // @blk_generic_freeze
.Lfunc_begin40:
	.loc	2 753 0                 // kernel/block/mas_blk_core.c:753:0
	.cfi_startproc
// %bb.0:
	//DEBUG_VALUE: blk_generic_freeze:freeze_obj <- $x0
	//DEBUG_VALUE: blk_generic_freeze:type <- $w1
	//DEBUG_VALUE: blk_generic_freeze:type <- $w1
	//DEBUG_VALUE: blk_generic_freeze:freeze_obj <- $x0
	str	x21, [sp, #-48]!        // 8-byte Folded Spill
	stp	x20, x19, [sp, #16]     // 16-byte Folded Spill
	stp	x29, x30, [sp, #32]     // 16-byte Folded Spill
	add	x29, sp, #32            // =32
	.cfi_def_cfa w29, 16
	.cfi_offset w30, -8
	.cfi_offset w29, -16
	.cfi_offset w19, -24
	.cfi_offset w20, -32
	.cfi_offset w21, -48
.Ltmp360:
	//DEBUG_VALUE: blk_generic_freeze:lld <- 0
	//DEBUG_VALUE: blk_generic_freeze:q <- 0
	.loc	2 757 6 prologue_end    // kernel/block/mas_blk_core.c:757:6
	cbz	x0, .LBB40_18
.Ltmp361:
// %bb.1:
	//DEBUG_VALUE: blk_generic_freeze:type <- $w1
	//DEBUG_VALUE: blk_generic_freeze:freeze_obj <- $x0
	.loc	2 0 6 is_stmt 0         // kernel/block/mas_blk_core.c:0:6
	mov	w19, w2
	.loc	2 762 2 is_stmt 1       // kernel/block/mas_blk_core.c:762:2
	cmp	w1, #1                  // =1
	b.eq	.LBB40_8
.Ltmp362:
// %bb.2:
	//DEBUG_VALUE: blk_generic_freeze:type <- $w1
	//DEBUG_VALUE: blk_generic_freeze:freeze_obj <- $x0
	cbnz	w1, .LBB40_18
.Ltmp363:
// %bb.3:
	//DEBUG_VALUE: blk_generic_freeze:type <- $w1
	//DEBUG_VALUE: blk_generic_freeze:freeze_obj <- $x0
	//DEBUG_VALUE: blk_generic_freeze:lld <- $x0
	//DEBUG_VALUE: mas_blk_freeze_lld:lld <- $x0
	//DEBUG_VALUE: mas_blk_freeze_lld:q <- 0
	//DEBUG_VALUE: mas_blk_freeze_lld:tag_set <- 0
	.loc	2 79 15                 // kernel/block/mas_blk_core.c:79:15
	ldr	w8, [x0, #4]
	.loc	2 79 2 is_stmt 0        // kernel/block/mas_blk_core.c:79:2
	cmp	w8, #2                  // =2
	b.eq	.LBB40_11
.Ltmp364:
// %bb.4:
	//DEBUG_VALUE: mas_blk_freeze_lld:lld <- $x0
	//DEBUG_VALUE: blk_generic_freeze:lld <- $x0
	//DEBUG_VALUE: blk_generic_freeze:type <- $w1
	//DEBUG_VALUE: blk_generic_freeze:freeze_obj <- $x0
	cbnz	w8, .LBB40_18
.Ltmp365:
// %bb.5:
	//DEBUG_VALUE: mas_blk_freeze_lld:lld <- $x0
	//DEBUG_VALUE: blk_generic_freeze:lld <- $x0
	//DEBUG_VALUE: blk_generic_freeze:type <- $w1
	//DEBUG_VALUE: blk_generic_freeze:freeze_obj <- $x0
	//DEBUG_VALUE: blk_generic_freeze:lld <- $x0
	//DEBUG_VALUE: mas_blk_freeze_lld:lld <- $x0
	.loc	2 81 37 is_stmt 1       // kernel/block/mas_blk_core.c:81:37
	ldr	x0, [x0, #8]
.Ltmp366:
	//DEBUG_VALUE: mas_blk_freeze_lld:q <- $x0
	.loc	2 82 11                 // kernel/block/mas_blk_core.c:82:11
	ldr	x8, [x0, #280]
.Ltmp367:
	.loc	2 82 7 is_stmt 0        // kernel/block/mas_blk_core.c:82:7
	cbz	x8, .LBB40_18
.Ltmp368:
// %bb.6:
	//DEBUG_VALUE: mas_blk_freeze_lld:q <- $x0
	//DEBUG_VALUE: blk_generic_freeze:type <- $w1
	.loc	2 85 7 is_stmt 1        // kernel/block/mas_blk_core.c:85:7
	tbnz	w19, #0, .LBB40_10
.Ltmp369:
.LBB40_7:
	//DEBUG_VALUE: blk_generic_freeze:type <- $w1
	.loc	2 0 0 is_stmt 0         // kernel/block/mas_blk_core.c:0:0
	bl	blk_mq_unfreeze_queue
.Ltmp370:
	b	.LBB40_18
.LBB40_8:
.Ltmp371:
	//DEBUG_VALUE: blk_generic_freeze:type <- $w1
	//DEBUG_VALUE: blk_generic_freeze:freeze_obj <- $x0
	//DEBUG_VALUE: blk_generic_freeze:q <- $x0
	.loc	2 769 10 is_stmt 1      // kernel/block/mas_blk_core.c:769:10
	ldr	x8, [x0, #280]
.Ltmp372:
	.loc	2 769 7 is_stmt 0       // kernel/block/mas_blk_core.c:769:7
	cbz	x8, .LBB40_18
.Ltmp373:
// %bb.9:
	//DEBUG_VALUE: blk_generic_freeze:q <- $x0
	//DEBUG_VALUE: blk_generic_freeze:type <- $w1
	//DEBUG_VALUE: blk_generic_freeze:freeze_obj <- $x0
	.loc	2 770 8 is_stmt 1       // kernel/block/mas_blk_core.c:770:8
	tbz	w19, #0, .LBB40_7
.Ltmp374:
.LBB40_10:
	//DEBUG_VALUE: blk_generic_freeze:type <- $w1
	.loc	2 0 0 is_stmt 0         // kernel/block/mas_blk_core.c:0:0
	bl	blk_mq_freeze_queue
.Ltmp375:
	b	.LBB40_18
.LBB40_11:
.Ltmp376:
	//DEBUG_VALUE: mas_blk_freeze_lld:lld <- $x0
	//DEBUG_VALUE: blk_generic_freeze:lld <- $x0
	//DEBUG_VALUE: blk_generic_freeze:type <- $w1
	//DEBUG_VALUE: blk_generic_freeze:freeze_obj <- $x0
	.loc	2 93 44 is_stmt 1       // kernel/block/mas_blk_core.c:93:44
	ldr	x8, [x0, #8]
.Ltmp377:
	//DEBUG_VALUE: mas_blk_freeze_lld:tag_set <- $x8
	.loc	2 0 0 is_stmt 0         // kernel/block/mas_blk_core.c:0:0
	ldr	x20, [x8, #552]
.Ltmp378:
	//DEBUG_VALUE: mas_blk_freeze_lld:q <- [DW_OP_constu 2728, DW_OP_minus, DW_OP_stack_value] $x20
	.loc	2 94 3 is_stmt 1        // kernel/block/mas_blk_core.c:94:3
	add	x21, x8, #552           // =552
.Ltmp379:
	//DEBUG_VALUE: __mptr <- undef
	.loc	2 94 3 is_stmt 0        // kernel/block/mas_blk_core.c:94:3
	cmp	x21, x20
	b.eq	.LBB40_18
.Ltmp380:
.LBB40_12:                              // =>This Inner Loop Header: Depth=1
	//DEBUG_VALUE: mas_blk_freeze_lld:q <- [DW_OP_constu 2728, DW_OP_minus, DW_OP_stack_value] $x20
	//DEBUG_VALUE: mas_blk_freeze_lld:tag_set <- $x8
	//DEBUG_VALUE: mas_blk_freeze_lld:lld <- $x0
	//DEBUG_VALUE: blk_generic_freeze:lld <- $x0
	//DEBUG_VALUE: blk_generic_freeze:type <- $w1
	//DEBUG_VALUE: blk_generic_freeze:freeze_obj <- $x0
	.loc	2 0 0                   // kernel/block/mas_blk_core.c:0:0
	subs	x0, x20, #2728          // =2728
.Ltmp381:
	//DEBUG_VALUE: blk_generic_freeze:lld <- 0
	//DEBUG_VALUE: blk_generic_freeze:type <- 1
	//DEBUG_VALUE: blk_generic_freeze:freeze_obj <- $x0
	//DEBUG_VALUE: blk_generic_freeze:q <- 0
	//DEBUG_VALUE: mas_blk_freeze_lld:q <- $x0
	.loc	2 757 6 is_stmt 1       // kernel/block/mas_blk_core.c:757:6
	b.eq	.LBB40_17
.Ltmp382:
// %bb.13:                              //   in Loop: Header=BB40_12 Depth=1
	//DEBUG_VALUE: blk_generic_freeze:freeze_obj <- $x0
	//DEBUG_VALUE: mas_blk_freeze_lld:tag_set <- $x8
	//DEBUG_VALUE: mas_blk_freeze_lld:q <- $x0
	//DEBUG_VALUE: blk_generic_freeze:type <- $w1
	.loc	2 769 10                // kernel/block/mas_blk_core.c:769:10
	sub	x8, x20, #2448          // =2448
.Ltmp383:
	ldr	x8, [x8]
.Ltmp384:
	.loc	2 769 7 is_stmt 0       // kernel/block/mas_blk_core.c:769:7
	cbz	x8, .LBB40_17
.Ltmp385:
// %bb.14:                              //   in Loop: Header=BB40_12 Depth=1
	//DEBUG_VALUE: blk_generic_freeze:freeze_obj <- $x0
	//DEBUG_VALUE: mas_blk_freeze_lld:q <- $x0
	//DEBUG_VALUE: blk_generic_freeze:type <- $w1
	.loc	2 770 8 is_stmt 1       // kernel/block/mas_blk_core.c:770:8
	tbz	w19, #0, .LBB40_16
.Ltmp386:
// %bb.15:                              //   in Loop: Header=BB40_12 Depth=1
	//DEBUG_VALUE: blk_generic_freeze:freeze_obj <- $x0
	//DEBUG_VALUE: mas_blk_freeze_lld:q <- $x0
	//DEBUG_VALUE: blk_generic_freeze:type <- $w1
	.loc	2 771 5                 // kernel/block/mas_blk_core.c:771:5
	bl	blk_mq_freeze_queue
.Ltmp387:
	//DEBUG_VALUE: __mptr <- undef
	.loc	2 0 0 is_stmt 0         // kernel/block/mas_blk_core.c:0:0
	ldr	x20, [x20]
	//DEBUG_VALUE: __mptr <- undef
	.loc	2 94 3 is_stmt 1        // kernel/block/mas_blk_core.c:94:3
	cmp	x21, x20
	b.ne	.LBB40_12
	b	.LBB40_18
.LBB40_16:                              //   in Loop: Header=BB40_12 Depth=1
.Ltmp388:
	//DEBUG_VALUE: blk_generic_freeze:freeze_obj <- $x0
	//DEBUG_VALUE: mas_blk_freeze_lld:q <- $x0
	//DEBUG_VALUE: blk_generic_freeze:type <- $w1
	.loc	2 773 5                 // kernel/block/mas_blk_core.c:773:5
	bl	blk_mq_unfreeze_queue
.Ltmp389:
.LBB40_17:                              //   in Loop: Header=BB40_12 Depth=1
	//DEBUG_VALUE: __mptr <- undef
	.loc	2 0 0 is_stmt 0         // kernel/block/mas_blk_core.c:0:0
	ldr	x20, [x20]
	//DEBUG_VALUE: __mptr <- undef
	.loc	2 94 3 is_stmt 1        // kernel/block/mas_blk_core.c:94:3
	cmp	x21, x20
	b.ne	.LBB40_12
.Ltmp390:
.LBB40_18:
	.loc	2 780 1                 // kernel/block/mas_blk_core.c:780:1
	ldp	x29, x30, [sp, #32]     // 16-byte Folded Reload
	ldp	x20, x19, [sp, #16]     // 16-byte Folded Reload
	ldr	x21, [sp], #48          // 8-byte Folded Reload
	ret
.Ltmp391:
.Lfunc_end40:
	.size	blk_generic_freeze, .Lfunc_end40-blk_generic_freeze
	.cfi_endproc
                                        // -- End function
	.section	.text.blk_dev_write_order_preserved,"ax",@progbits
	.hidden	blk_dev_write_order_preserved // -- Begin function blk_dev_write_order_preserved
	.globl	blk_dev_write_order_preserved
	.p2align	2
	.type	blk_dev_write_order_preserved,@function
blk_dev_write_order_preserved:          // @blk_dev_write_order_preserved
.Lfunc_begin41:
	.loc	2 783 0                 // kernel/block/mas_blk_core.c:783:0
	.cfi_startproc
// %bb.0:
	//DEBUG_VALUE: blk_dev_write_order_preserved:bdev <- $x0
	//DEBUG_VALUE: blk_dev_write_order_preserved:bdev <- $x0
	//DEBUG_VALUE: blk_dev_write_order_preserved:q <- 0
	//DEBUG_VALUE: blk_dev_write_order_preserved:lld <- 0
	.loc	2 787 6 prologue_end    // kernel/block/mas_blk_core.c:787:6
	cbz	x0, .LBB41_6
.Ltmp392:
// %bb.1:
	//DEBUG_VALUE: blk_dev_write_order_preserved:bdev <- $x0
	ldr	x8, [x0, #128]
	cbz	x8, .LBB41_7
.Ltmp393:
// %bb.2:
	//DEBUG_VALUE: blk_dev_write_order_preserved:bdev <- $x0
	ldr	x8, [x8, #1016]
.Ltmp394:
	//DEBUG_VALUE: mas_blk_get_lld:q <- $x8
	//DEBUG_VALUE: blk_dev_write_order_preserved:q <- $x8
	.loc	2 787 6 is_stmt 0       // kernel/block/mas_blk_core.c:787:6
	cbz	x8, .LBB41_8
.Ltmp395:
// %bb.3:
	//DEBUG_VALUE: blk_dev_write_order_preserved:q <- $x8
	//DEBUG_VALUE: mas_blk_get_lld:q <- $x8
	//DEBUG_VALUE: blk_dev_write_order_preserved:bdev <- $x0
	.loc	2 43 6 is_stmt 1        // kernel/block/mas_blk_core.c:43:6
	ldr	x9, [x8, #280]
.Ltmp396:
	.loc	2 43 6 is_stmt 0        // kernel/block/mas_blk_core.c:43:6
	cbz	x9, .LBB41_9
.Ltmp397:
// %bb.4:
	//DEBUG_VALUE: blk_dev_write_order_preserved:q <- $x8
	//DEBUG_VALUE: mas_blk_get_lld:q <- $x8
	//DEBUG_VALUE: blk_dev_write_order_preserved:bdev <- $x0
	.loc	2 44 14 is_stmt 1       // kernel/block/mas_blk_core.c:44:14
	ldr	x9, [x8, #2720]
	.loc	2 44 11 is_stmt 0       // kernel/block/mas_blk_core.c:44:11
	add	x8, x8, #1768           // =1768
.Ltmp398:
	add	x10, x9, #16            // =16
.Ltmp399:
.LBB41_5:
	//DEBUG_VALUE: blk_dev_write_order_preserved:bdev <- $x0
	.loc	2 0 0                   // kernel/block/mas_blk_core.c:0:0
	cmp	x9, #0                  // =0
	csel	x8, x8, x10, eq
.Ltmp400:
	//DEBUG_VALUE: blk_dev_write_order_preserved:lld <- $x8
	.loc	2 793 9 is_stmt 1       // kernel/block/mas_blk_core.c:793:9
	ldrb	w8, [x8, #24]
.Ltmp401:
	lsr	w0, w8, #7
.Ltmp402:
.LBB41_6:
	.loc	2 794 1                 // kernel/block/mas_blk_core.c:794:1
	ret
.LBB41_7:
.Ltmp403:
	//DEBUG_VALUE: blk_dev_write_order_preserved:bdev <- $x0
	.loc	2 0 0 is_stmt 0         // kernel/block/mas_blk_core.c:0:0
	mov	w0, wzr
.Ltmp404:
	.loc	2 794 1                 // kernel/block/mas_blk_core.c:794:1
	ret
.LBB41_8:
.Ltmp405:
	//DEBUG_VALUE: blk_dev_write_order_preserved:q <- $x8
	//DEBUG_VALUE: blk_dev_write_order_preserved:bdev <- $x0
	.loc	2 0 0                   // kernel/block/mas_blk_core.c:0:0
	mov	w0, wzr
.Ltmp406:
	.loc	2 794 1                 // kernel/block/mas_blk_core.c:794:1
	ret
.Ltmp407:
.LBB41_9:
	//DEBUG_VALUE: blk_dev_write_order_preserved:q <- $x8
	//DEBUG_VALUE: mas_blk_get_lld:q <- $x8
	//DEBUG_VALUE: blk_dev_write_order_preserved:bdev <- $x0
	.loc	2 46 14 is_stmt 1       // kernel/block/mas_blk_core.c:46:14
	ldr	x9, [x8, #672]
	.loc	2 46 11 is_stmt 0       // kernel/block/mas_blk_core.c:46:11
	add	x8, x8, #1768           // =1768
.Ltmp408:
	add	x10, x9, #88            // =88
	b	.LBB41_5
.Ltmp409:
.Lfunc_end41:
	.size	blk_dev_write_order_preserved, .Lfunc_end41-blk_dev_write_order_preserved
	.cfi_endproc
                                        // -- End function
	.section	.text.blk_req_set_make_req_nr,"ax",@progbits
	.hidden	blk_req_set_make_req_nr // -- Begin function blk_req_set_make_req_nr
	.globl	blk_req_set_make_req_nr
	.p2align	2
	.type	blk_req_set_make_req_nr,@function
blk_req_set_make_req_nr:                // @blk_req_set_make_req_nr
.Lfunc_begin42:
	.loc	2 810 0 is_stmt 1       // kernel/block/mas_blk_core.c:810:0
	.cfi_startproc
// %bb.0:
	//DEBUG_VALUE: blk_req_set_make_req_nr:req <- $x0
	str	x21, [sp, #-48]!        // 8-byte Folded Spill
	stp	x20, x19, [sp, #16]     // 16-byte Folded Spill
	stp	x29, x30, [sp, #32]     // 16-byte Folded Spill
	add	x29, sp, #32            // =32
	.cfi_def_cfa w29, 16
	.cfi_offset w30, -8
	.cfi_offset w29, -16
	.cfi_offset w19, -24
	.cfi_offset w20, -32
	.cfi_offset w21, -48
.Ltmp410:
	.loc	2 812 49 prologue_end   // kernel/block/mas_blk_core.c:812:49
	ldr	x8, [x0, #64]
.Ltmp411:
	//DEBUG_VALUE: mas_blk_get_lld:q <- $x8
	.loc	2 0 49 is_stmt 0        // kernel/block/mas_blk_core.c:0:49
	mov	x19, x0
.Ltmp412:
	//DEBUG_VALUE: blk_req_set_make_req_nr:flags <- 0
	//DEBUG_VALUE: blk_req_set_make_req_nr:req <- $x19
	.loc	2 43 6 is_stmt 1        // kernel/block/mas_blk_core.c:43:6
	ldr	x9, [x8, #280]
.Ltmp413:
	.loc	2 43 6 is_stmt 0        // kernel/block/mas_blk_core.c:43:6
	cbz	x9, .LBB42_6
.Ltmp414:
// %bb.1:
	//DEBUG_VALUE: blk_req_set_make_req_nr:req <- $x19
	//DEBUG_VALUE: mas_blk_get_lld:q <- $x8
	.loc	2 44 14 is_stmt 1       // kernel/block/mas_blk_core.c:44:14
	ldr	x9, [x8, #2720]
	.loc	2 44 11 is_stmt 0       // kernel/block/mas_blk_core.c:44:11
	add	x8, x8, #1768           // =1768
.Ltmp415:
	add	x10, x9, #16            // =16
.Ltmp416:
.LBB42_2:
	//DEBUG_VALUE: blk_req_set_make_req_nr:req <- $x19
	.loc	2 0 0                   // kernel/block/mas_blk_core.c:0:0
	cmp	x9, #0                  // =0
	csel	x21, x8, x10, eq
.Ltmp417:
	//DEBUG_VALUE: spin_unlock_irqrestore:lock <- [DW_OP_plus_uconst 400, DW_OP_stack_value] $x21
	//DEBUG_VALUE: spinlock_check:lock <- [DW_OP_plus_uconst 400, DW_OP_stack_value] $x21
	//DEBUG_VALUE: blk_req_set_make_req_nr:lld <- $x21
	.loc	2 818 45 is_stmt 1      // kernel/block/mas_blk_core.c:818:45
	ldrh	w8, [x21, #24]
	tst	w8, #0x180
	b.eq	.LBB42_5
.Ltmp418:
// %bb.3:
	//DEBUG_VALUE: blk_req_set_make_req_nr:lld <- $x21
	//DEBUG_VALUE: spinlock_check:lock <- [DW_OP_plus_uconst 400, DW_OP_stack_value] $x21
	//DEBUG_VALUE: spin_unlock_irqrestore:lock <- [DW_OP_plus_uconst 400, DW_OP_stack_value] $x21
	//DEBUG_VALUE: blk_req_set_make_req_nr:req <- $x19
	.loc	2 820 33                // kernel/block/mas_blk_core.c:820:33
	ldr	x8, [x19, #272]
.Ltmp419:
	.file	138 "/mnt/disk/jenkins/ci/workspace/chipset_pipeline_release/opensource/component_code/vendor/huawei/extra/build/build_script/kirin_kernel_release/kernel/include/linux/spinlock.h"
	.loc	138 306 16              // kernel/include/linux/spinlock.h:306:16
	add	x20, x21, #400          // =400
.Ltmp420:
	.loc	2 821 3                 // kernel/block/mas_blk_core.c:821:3
	mov	x0, x20
.Ltmp421:
	.loc	2 820 33                // kernel/block/mas_blk_core.c:820:33
	orr	x8, x8, #0x4
	str	x8, [x19, #272]
.Ltmp422:
	.loc	2 821 3                 // kernel/block/mas_blk_core.c:821:3
	bl	_raw_spin_lock_irqsave
.Ltmp423:
	.loc	2 822 7                 // kernel/block/mas_blk_core.c:822:7
	ldr	w8, [x21, #396]
.Ltmp424:
	.loc	2 821 3                 // kernel/block/mas_blk_core.c:821:3
	mov	x1, x0
.Ltmp425:
	//DEBUG_VALUE: spin_unlock_irqrestore:flags <- $x1
	//DEBUG_VALUE: blk_req_set_make_req_nr:flags <- $x1
	.loc	2 822 7                 // kernel/block/mas_blk_core.c:822:7
	cbz	w8, .LBB42_7
.Ltmp426:
.LBB42_4:
	//DEBUG_VALUE: blk_req_set_make_req_nr:flags <- $x1
	//DEBUG_VALUE: blk_req_set_make_req_nr:lld <- $x21
	//DEBUG_VALUE: blk_req_set_make_req_nr:req <- $x19
	.loc	2 824 46                // kernel/block/mas_blk_core.c:824:46
	add	w9, w8, #1              // =1
.Ltmp427:
	.loc	138 372 2               // kernel/include/linux/spinlock.h:372:2
	mov	x0, x20
.Ltmp428:
	.loc	2 824 46                // kernel/block/mas_blk_core.c:824:46
	str	w9, [x21, #396]
	.loc	2 824 28 is_stmt 0      // kernel/block/mas_blk_core.c:824:28
	str	w8, [x19, #424]
.Ltmp429:
	.loc	138 372 2 is_stmt 1     // kernel/include/linux/spinlock.h:372:2
	bl	_raw_spin_unlock_irqrestore
.Ltmp430:
.LBB42_5:
	//DEBUG_VALUE: blk_req_set_make_req_nr:lld <- $x21
	//DEBUG_VALUE: blk_req_set_make_req_nr:req <- $x19
	.loc	2 827 1                 // kernel/block/mas_blk_core.c:827:1
	ldp	x29, x30, [sp, #32]     // 16-byte Folded Reload
	ldp	x20, x19, [sp, #16]     // 16-byte Folded Reload
.Ltmp431:
	ldr	x21, [sp], #48          // 8-byte Folded Reload
.Ltmp432:
	ret
.LBB42_6:
.Ltmp433:
	//DEBUG_VALUE: blk_req_set_make_req_nr:req <- $x19
	//DEBUG_VALUE: mas_blk_get_lld:q <- $x8
	.loc	2 46 14                 // kernel/block/mas_blk_core.c:46:14
	ldr	x9, [x8, #672]
	.loc	2 46 11 is_stmt 0       // kernel/block/mas_blk_core.c:46:11
	add	x8, x8, #1768           // =1768
.Ltmp434:
	add	x10, x9, #88            // =88
	b	.LBB42_2
.Ltmp435:
.LBB42_7:
	//DEBUG_VALUE: blk_req_set_make_req_nr:flags <- $x1
	//DEBUG_VALUE: blk_req_set_make_req_nr:lld <- $x21
	//DEBUG_VALUE: blk_req_set_make_req_nr:req <- $x19
	.loc	2 0 11                  // kernel/block/mas_blk_core.c:0:11
	orr	w8, wzr, #0x1
.Ltmp436:
	.loc	2 823 20 is_stmt 1      // kernel/block/mas_blk_core.c:823:20
	str	w8, [x21, #396]
	b	.LBB42_4
.Ltmp437:
.Lfunc_end42:
	.size	blk_req_set_make_req_nr, .Lfunc_end42-blk_req_set_make_req_nr
	.cfi_endproc
                                        // -- End function
	.section	.text.blk_req_get_order_nr,"ax",@progbits
	.hidden	blk_req_get_order_nr    // -- Begin function blk_req_get_order_nr
	.globl	blk_req_get_order_nr
	.p2align	2
	.type	blk_req_get_order_nr,@function
blk_req_get_order_nr:                   // @blk_req_get_order_nr
.Lfunc_begin43:
	.loc	2 900 0                 // kernel/block/mas_blk_core.c:900:0
	.cfi_startproc
// %bb.0:
	//DEBUG_VALUE: blk_req_get_order_nr:req <- $x0
	stp	x22, x21, [sp, #-48]!   // 16-byte Folded Spill
	stp	x20, x19, [sp, #16]     // 16-byte Folded Spill
	stp	x29, x30, [sp, #32]     // 16-byte Folded Spill
	add	x29, sp, #32            // =32
	.cfi_def_cfa w29, 16
	.cfi_offset w30, -8
	.cfi_offset w29, -16
	.cfi_offset w19, -24
	.cfi_offset w20, -32
	.cfi_offset w21, -40
	.cfi_offset w22, -48
.Ltmp438:
	.loc	2 905 6 prologue_end    // kernel/block/mas_blk_core.c:905:6
	ldrb	w8, [x0, #272]
	mov	x19, x0
.Ltmp439:
	//DEBUG_VALUE: blk_req_get_order_nr:lld <- 0
	//DEBUG_VALUE: blk_req_get_order_nr:order <- 0
	//DEBUG_VALUE: blk_req_get_order_nr:req <- $x19
	tbnz	w8, #1, .LBB43_6
.Ltmp440:
// %bb.1:
	//DEBUG_VALUE: blk_req_get_order_nr:req <- $x19
	.loc	2 908 29                // kernel/block/mas_blk_core.c:908:29
	ldr	x8, [x19, #64]
.Ltmp441:
	//DEBUG_VALUE: mas_blk_get_lld:q <- $x8
	.loc	2 0 29 is_stmt 0        // kernel/block/mas_blk_core.c:0:29
	mov	w20, w1
.Ltmp442:
	.loc	2 43 6 is_stmt 1        // kernel/block/mas_blk_core.c:43:6
	ldr	x9, [x8, #280]
.Ltmp443:
	.loc	2 43 6 is_stmt 0        // kernel/block/mas_blk_core.c:43:6
	cbz	x9, .LBB43_13
.Ltmp444:
// %bb.2:
	//DEBUG_VALUE: mas_blk_get_lld:q <- $x8
	//DEBUG_VALUE: blk_req_get_order_nr:req <- $x19
	.loc	2 44 14 is_stmt 1       // kernel/block/mas_blk_core.c:44:14
	ldr	x9, [x8, #2720]
	.loc	2 44 11 is_stmt 0       // kernel/block/mas_blk_core.c:44:11
	add	x8, x8, #1768           // =1768
.Ltmp445:
	add	x10, x9, #16            // =16
.Ltmp446:
.LBB43_3:
	//DEBUG_VALUE: blk_req_get_order_nr:req <- $x19
	.loc	2 909 20 is_stmt 1      // kernel/block/mas_blk_core.c:909:20
	ldr	w1, [x19, #428]
.Ltmp447:
	.loc	2 0 0 is_stmt 0         // kernel/block/mas_blk_core.c:0:0
	cmp	x9, #0                  // =0
	csel	x22, x8, x10, eq
.Ltmp448:
	//DEBUG_VALUE: blk_req_get_order_nr:lld <- $x22
	//DEBUG_VALUE: spin_unlock_irqrestore:lock <- [DW_OP_plus_uconst 392, DW_OP_stack_value] $x22
	//DEBUG_VALUE: spinlock_check:lock <- [DW_OP_plus_uconst 392, DW_OP_stack_value] $x22
	.loc	2 909 7                 // kernel/block/mas_blk_core.c:909:7
	cbz	w1, .LBB43_5
.Ltmp449:
// %bb.4:
	//DEBUG_VALUE: blk_req_get_order_nr:lld <- $x22
	//DEBUG_VALUE: blk_req_get_order_nr:req <- $x19
	.loc	2 910 3 is_stmt 1       // kernel/block/mas_blk_core.c:910:3
	adrp	x0, .L.str.4
	add	x0, x0, :lo12:.L.str.4
	bl	printk
	.loc	2 912 24                // kernel/block/mas_blk_core.c:912:24
	ldr	w21, [x19, #428]
	b	.LBB43_8
.Ltmp450:
.LBB43_5:
	//DEBUG_VALUE: blk_req_get_order_nr:lld <- $x22
	//DEBUG_VALUE: blk_req_get_order_nr:req <- $x19
	.loc	2 914 7                 // kernel/block/mas_blk_core.c:914:7
	ldrb	w8, [x22, #24]
	tbnz	w8, #7, .LBB43_9
.Ltmp451:
.LBB43_6:
	//DEBUG_VALUE: blk_req_get_order_nr:req <- $x19
	.loc	2 0 0 is_stmt 0         // kernel/block/mas_blk_core.c:0:0
	mov	w21, wzr
.Ltmp452:
.LBB43_7:
	//DEBUG_VALUE: blk_req_get_order_nr:req <- $x19
	//DEBUG_VALUE: blk_req_get_order_nr:order <- $w21
	//DEBUG_LABEL: blk_req_get_order_nr:out
	.loc	2 926 27 is_stmt 1      // kernel/block/mas_blk_core.c:926:27
	str	w21, [x19, #428]
.Ltmp453:
.LBB43_8:
	//DEBUG_VALUE: blk_req_get_order_nr:req <- $x19
	.loc	2 928 1                 // kernel/block/mas_blk_core.c:928:1
	ldp	x29, x30, [sp, #32]     // 16-byte Folded Reload
	ldp	x20, x19, [sp, #16]     // 16-byte Folded Reload
.Ltmp454:
	mov	w0, w21
	ldp	x22, x21, [sp], #48     // 16-byte Folded Reload
	ret
.LBB43_9:
.Ltmp455:
	//DEBUG_VALUE: blk_req_get_order_nr:lld <- $x22
	//DEBUG_VALUE: blk_req_get_order_nr:req <- $x19
                                        // implicit-def: $x1
	.loc	2 915 8                 // kernel/block/mas_blk_core.c:915:8
	tbnz	w20, #0, .LBB43_11
.Ltmp456:
// %bb.10:
	//DEBUG_VALUE: blk_req_get_order_nr:lld <- $x22
	//DEBUG_VALUE: blk_req_get_order_nr:req <- $x19
	.loc	138 306 16              // kernel/include/linux/spinlock.h:306:16
	add	x0, x22, #392           // =392
.Ltmp457:
	.loc	2 916 5                 // kernel/block/mas_blk_core.c:916:5
	bl	_raw_spin_lock_irqsave
	mov	x1, x0
.Ltmp458:
	//DEBUG_VALUE: blk_req_get_order_nr:flags <- $x1
.LBB43_11:
	//DEBUG_VALUE: blk_req_get_order_nr:lld <- $x22
	//DEBUG_VALUE: blk_req_get_order_nr:req <- $x19
	//DEBUG_VALUE: blk_req_get_order_nr:flags <- $x1
	//DEBUG_VALUE: spin_unlock_irqrestore:flags <- $x1
	.loc	2 917 18                // kernel/block/mas_blk_core.c:917:18
	ldr	w8, [x22, #388]
	adds	w9, w8, #1              // =1
.Ltmp459:
	.loc	2 919 19                // kernel/block/mas_blk_core.c:919:19
	add	w8, w8, #2              // =2
.Ltmp460:
	.loc	2 918 8                 // kernel/block/mas_blk_core.c:918:8
	csel	w21, w8, w9, hs
.Ltmp461:
	//DEBUG_VALUE: blk_req_get_order_nr:order <- $w21
	.loc	2 0 0 is_stmt 0         // kernel/block/mas_blk_core.c:0:0
	str	w21, [x22, #388]
	.loc	2 921 8 is_stmt 1       // kernel/block/mas_blk_core.c:921:8
	tbnz	w20, #0, .LBB43_7
.Ltmp462:
// %bb.12:
	//DEBUG_VALUE: spin_unlock_irqrestore:flags <- $x1
	//DEBUG_VALUE: blk_req_get_order_nr:flags <- $x1
	//DEBUG_VALUE: blk_req_get_order_nr:order <- $w21
	//DEBUG_VALUE: blk_req_get_order_nr:lld <- $x22
	//DEBUG_VALUE: blk_req_get_order_nr:req <- $x19
	.loc	138 372 2               // kernel/include/linux/spinlock.h:372:2
	add	x0, x22, #392           // =392
	bl	_raw_spin_unlock_irqrestore
.Ltmp463:
	.loc	138 0 2 is_stmt 0       // kernel/include/linux/spinlock.h:0:2
	b	.LBB43_7
.Ltmp464:
.LBB43_13:
	//DEBUG_VALUE: mas_blk_get_lld:q <- $x8
	//DEBUG_VALUE: blk_req_get_order_nr:req <- $x19
	.loc	2 46 14 is_stmt 1       // kernel/block/mas_blk_core.c:46:14
	ldr	x9, [x8, #672]
	.loc	2 46 11 is_stmt 0       // kernel/block/mas_blk_core.c:46:11
	add	x8, x8, #1768           // =1768
.Ltmp465:
	add	x10, x9, #88            // =88
	b	.LBB43_3
.Ltmp466:
.Lfunc_end43:
	.size	blk_req_get_order_nr, .Lfunc_end43-blk_req_get_order_nr
	.cfi_endproc
                                        // -- End function
	.section	.text.blk_queue_order_enable,"ax",@progbits
	.hidden	blk_queue_order_enable  // -- Begin function blk_queue_order_enable
	.globl	blk_queue_order_enable
	.p2align	2
	.type	blk_queue_order_enable,@function
blk_queue_order_enable:                 // @blk_queue_order_enable
.Lfunc_begin44:
	.loc	2 932 0 is_stmt 1       // kernel/block/mas_blk_core.c:932:0
	.cfi_startproc
// %bb.0:
	//DEBUG_VALUE: blk_queue_order_enable:q <- $x0
	//DEBUG_VALUE: blk_queue_order_enable:q <- $x0
	//DEBUG_VALUE: mas_blk_get_lld:q <- $x0
	//DEBUG_VALUE: mas_blk_get_lld:q <- $x0
	.loc	2 43 6 prologue_end     // kernel/block/mas_blk_core.c:43:6
	ldr	x8, [x0, #280]
.Ltmp467:
	.loc	2 43 6 is_stmt 0        // kernel/block/mas_blk_core.c:43:6
	cbz	x8, .LBB44_3
// %bb.1:
	//DEBUG_VALUE: mas_blk_get_lld:q <- $x0
	//DEBUG_VALUE: blk_queue_order_enable:q <- $x0
.Ltmp468:
	.loc	2 44 14 is_stmt 1       // kernel/block/mas_blk_core.c:44:14
	ldr	x8, [x0, #2720]
	.loc	2 44 11 is_stmt 0       // kernel/block/mas_blk_core.c:44:11
	add	x9, x0, #1768           // =1768
	add	x10, x8, #16            // =16
.LBB44_2:
	//DEBUG_VALUE: mas_blk_get_lld:q <- $x0
	//DEBUG_VALUE: blk_queue_order_enable:q <- $x0
	.loc	2 0 0                   // kernel/block/mas_blk_core.c:0:0
	cmp	x8, #0                  // =0
	csel	x8, x9, x10, eq
.Ltmp469:
	//DEBUG_VALUE: blk_queue_order_enable:lld <- $x8
	ldr	x9, [x8, #24]
.Ltmp470:
	.loc	2 935 6 is_stmt 1       // kernel/block/mas_blk_core.c:935:6
	tst	w1, #0x1
	and	w10, w1, #0x1
.Ltmp471:
	.loc	2 940 21                // kernel/block/mas_blk_core.c:940:21
	strb	w10, [x8, #384]
.Ltmp472:
	.loc	2 935 6                 // kernel/block/mas_blk_core.c:935:6
	and	x11, x9, #0xffffffffffffff7f
	orr	x9, x9, #0x80
	csel	x9, x9, x11, ne
.Ltmp473:
	.loc	2 0 0 is_stmt 0         // kernel/block/mas_blk_core.c:0:0
	str	x9, [x8, #24]
.Ltmp474:
	.loc	2 942 1 is_stmt 1       // kernel/block/mas_blk_core.c:942:1
	ret
.Ltmp475:
.LBB44_3:
	//DEBUG_VALUE: mas_blk_get_lld:q <- $x0
	//DEBUG_VALUE: blk_queue_order_enable:q <- $x0
	.loc	2 46 14                 // kernel/block/mas_blk_core.c:46:14
	ldr	x8, [x0, #672]
	.loc	2 46 11 is_stmt 0       // kernel/block/mas_blk_core.c:46:11
	add	x9, x0, #1768           // =1768
	add	x10, x8, #88            // =88
	b	.LBB44_2
.Ltmp476:
.Lfunc_end44:
	.size	blk_queue_order_enable, .Lfunc_end44-blk_queue_order_enable
	.cfi_endproc
                                        // -- End function
	.section	.text.blk_queue_query_order_enable,"ax",@progbits
	.hidden	blk_queue_query_order_enable // -- Begin function blk_queue_query_order_enable
	.globl	blk_queue_query_order_enable
	.p2align	2
	.type	blk_queue_query_order_enable,@function
blk_queue_query_order_enable:           // @blk_queue_query_order_enable
.Lfunc_begin45:
	.loc	2 946 0 is_stmt 1       // kernel/block/mas_blk_core.c:946:0
	.cfi_startproc
// %bb.0:
	//DEBUG_VALUE: blk_queue_query_order_enable:q <- $x0
	//DEBUG_VALUE: blk_queue_query_order_enable:q <- $x0
	//DEBUG_VALUE: mas_blk_get_lld:q <- $x0
	//DEBUG_VALUE: mas_blk_get_lld:q <- $x0
	.loc	2 43 6 prologue_end     // kernel/block/mas_blk_core.c:43:6
	ldr	x8, [x0, #280]
.Ltmp477:
	.loc	2 43 6 is_stmt 0        // kernel/block/mas_blk_core.c:43:6
	cbz	x8, .LBB45_3
.Ltmp478:
// %bb.1:
	//DEBUG_VALUE: mas_blk_get_lld:q <- $x0
	//DEBUG_VALUE: blk_queue_query_order_enable:q <- $x0
	.loc	2 44 14 is_stmt 1       // kernel/block/mas_blk_core.c:44:14
	ldr	x8, [x0, #2720]
	.loc	2 44 11 is_stmt 0       // kernel/block/mas_blk_core.c:44:11
	add	x9, x0, #1768           // =1768
	add	x10, x8, #16            // =16
.Ltmp479:
.LBB45_2:
	//DEBUG_VALUE: mas_blk_get_lld:q <- $x0
	//DEBUG_VALUE: blk_queue_query_order_enable:q <- $x0
	.loc	2 0 0                   // kernel/block/mas_blk_core.c:0:0
	cmp	x8, #0                  // =0
	csel	x8, x9, x10, eq
.Ltmp480:
	//DEBUG_VALUE: blk_queue_query_order_enable:lld <- $x8
	.loc	2 948 10 is_stmt 1      // kernel/block/mas_blk_core.c:948:10
	ldrb	w8, [x8, #24]
.Ltmp481:
	lsr	w0, w8, #7
.Ltmp482:
	.loc	2 948 2 is_stmt 0       // kernel/block/mas_blk_core.c:948:2
	ret
.LBB45_3:
.Ltmp483:
	//DEBUG_VALUE: mas_blk_get_lld:q <- $x0
	//DEBUG_VALUE: blk_queue_query_order_enable:q <- $x0
	.loc	2 46 14 is_stmt 1       // kernel/block/mas_blk_core.c:46:14
	ldr	x8, [x0, #672]
	.loc	2 46 11 is_stmt 0       // kernel/block/mas_blk_core.c:46:11
	add	x9, x0, #1768           // =1768
	add	x10, x8, #88            // =88
	b	.LBB45_2
.Ltmp484:
.Lfunc_end45:
	.size	blk_queue_query_order_enable, .Lfunc_end45-blk_queue_query_order_enable
	.cfi_endproc
                                        // -- End function
	.section	.text.blk_order_nr_reset,"ax",@progbits
	.hidden	blk_order_nr_reset      // -- Begin function blk_order_nr_reset
	.globl	blk_order_nr_reset
	.p2align	2
	.type	blk_order_nr_reset,@function
blk_order_nr_reset:                     // @blk_order_nr_reset
.Lfunc_begin46:
	.loc	2 953 0 is_stmt 1       // kernel/block/mas_blk_core.c:953:0
	.cfi_startproc
// %bb.0:
	//DEBUG_VALUE: blk_order_nr_reset:tag_set <- $x0
	//DEBUG_VALUE: blk_order_nr_reset:tag_set <- $x0
	//DEBUG_VALUE: blk_order_nr_reset:blk_lld <- 0
	.loc	2 955 6 prologue_end    // kernel/block/mas_blk_core.c:955:6
	cbz	x0, .LBB46_2
// %bb.1:
	//DEBUG_VALUE: blk_order_nr_reset:tag_set <- $x0
.Ltmp485:
	//DEBUG_VALUE: blk_order_nr_reset:blk_lld <- [DW_OP_plus_uconst 16, DW_OP_stack_value] $x0
	.loc	2 958 21                // kernel/block/mas_blk_core.c:958:21
	str	wzr, [x0, #404]
.LBB46_2:
	//DEBUG_VALUE: blk_order_nr_reset:tag_set <- $x0
	.loc	2 962 1                 // kernel/block/mas_blk_core.c:962:1
	ret
.Ltmp486:
.Lfunc_end46:
	.size	blk_order_nr_reset, .Lfunc_end46-blk_order_nr_reset
	.cfi_endproc
                                        // -- End function
	.section	.text.blk_queue_cp_enable,"ax",@progbits
	.hidden	blk_queue_cp_enable     // -- Begin function blk_queue_cp_enable
	.globl	blk_queue_cp_enable
	.p2align	2
	.type	blk_queue_cp_enable,@function
blk_queue_cp_enable:                    // @blk_queue_cp_enable
.Lfunc_begin47:
	.loc	2 967 0                 // kernel/block/mas_blk_core.c:967:0
	.cfi_startproc
// %bb.0:
	//DEBUG_VALUE: blk_queue_cp_enable:q <- $x0
	//DEBUG_VALUE: blk_queue_cp_enable:q <- $x0
	//DEBUG_VALUE: mas_blk_get_lld:q <- $x0
	//DEBUG_VALUE: mas_blk_get_lld:q <- $x0
	.loc	2 43 6 prologue_end     // kernel/block/mas_blk_core.c:43:6
	ldr	x8, [x0, #280]
.Ltmp487:
	.loc	2 43 6 is_stmt 0        // kernel/block/mas_blk_core.c:43:6
	cbz	x8, .LBB47_3
// %bb.1:
	//DEBUG_VALUE: mas_blk_get_lld:q <- $x0
	//DEBUG_VALUE: blk_queue_cp_enable:q <- $x0
.Ltmp488:
	.loc	2 44 14 is_stmt 1       // kernel/block/mas_blk_core.c:44:14
	ldr	x8, [x0, #2720]
	.loc	2 44 11 is_stmt 0       // kernel/block/mas_blk_core.c:44:11
	add	x9, x0, #1768           // =1768
	add	x10, x8, #16            // =16
.LBB47_2:
	//DEBUG_VALUE: mas_blk_get_lld:q <- $x0
	//DEBUG_VALUE: blk_queue_cp_enable:q <- $x0
	.loc	2 0 0                   // kernel/block/mas_blk_core.c:0:0
	cmp	x8, #0                  // =0
	csel	x8, x9, x10, eq
.Ltmp489:
	//DEBUG_VALUE: blk_queue_cp_enable:lld <- $x8
	ldr	x9, [x8, #24]
.Ltmp490:
	.loc	2 970 6 is_stmt 1       // kernel/block/mas_blk_core.c:970:6
	tst	w1, #0x1
	and	x10, x9, #0xffffffffffffffbf
	orr	x9, x9, #0x40
	csel	x9, x9, x10, ne
.Ltmp491:
	.loc	2 0 0 is_stmt 0         // kernel/block/mas_blk_core.c:0:0
	str	x9, [x8, #24]
.Ltmp492:
	.loc	2 974 1 is_stmt 1       // kernel/block/mas_blk_core.c:974:1
	ret
.Ltmp493:
.LBB47_3:
	//DEBUG_VALUE: mas_blk_get_lld:q <- $x0
	//DEBUG_VALUE: blk_queue_cp_enable:q <- $x0
	.loc	2 46 14                 // kernel/block/mas_blk_core.c:46:14
	ldr	x8, [x0, #672]
	.loc	2 46 11 is_stmt 0       // kernel/block/mas_blk_core.c:46:11
	add	x9, x0, #1768           // =1768
	add	x10, x8, #88            // =88
	b	.LBB47_2
.Ltmp494:
.Lfunc_end47:
	.size	blk_queue_cp_enable, .Lfunc_end47-blk_queue_cp_enable
	.cfi_endproc
                                        // -- End function
	.section	.text.mas_queue_status_show,"ax",@progbits
	.hidden	mas_queue_status_show   // -- Begin function mas_queue_status_show
	.globl	mas_queue_status_show
	.p2align	2
	.type	mas_queue_status_show,@function
mas_queue_status_show:                  // @mas_queue_status_show
.Lfunc_begin48:
	.loc	2 979 0 is_stmt 1       // kernel/block/mas_blk_core.c:979:0
	.cfi_startproc
// %bb.0:
	//DEBUG_VALUE: mas_queue_status_show:q <- $x0
	//DEBUG_VALUE: mas_queue_status_show:page <- $x1
	//DEBUG_VALUE: mas_queue_status_show:len <- $x2
	//DEBUG_VALUE: mas_blk_get_lld:q <- $x0
	stp	x22, x21, [sp, #-48]!   // 16-byte Folded Spill
	stp	x20, x19, [sp, #16]     // 16-byte Folded Spill
	stp	x29, x30, [sp, #32]     // 16-byte Folded Spill
	add	x29, sp, #32            // =32
	.cfi_def_cfa w29, 16
	.cfi_offset w30, -8
	.cfi_offset w29, -16
	.cfi_offset w19, -24
	.cfi_offset w20, -32
	.cfi_offset w21, -40
	.cfi_offset w22, -48
.Ltmp495:
	.loc	2 43 6 prologue_end     // kernel/block/mas_blk_core.c:43:6
	ldr	x8, [x0, #280]
	mov	x20, x2
	mov	x19, x0
.Ltmp496:
	//DEBUG_VALUE: mas_blk_get_lld:q <- $x19
	//DEBUG_VALUE: mas_queue_status_show:len <- $x20
	//DEBUG_VALUE: mas_queue_status_show:q <- $x19
	.loc	2 0 6 is_stmt 0         // kernel/block/mas_blk_core.c:0:6
	mov	x21, x1
.Ltmp497:
	//DEBUG_VALUE: mas_queue_status_show:page <- $x21
	.loc	2 43 6                  // kernel/block/mas_blk_core.c:43:6
	cbz	x8, .LBB48_3
.Ltmp498:
// %bb.1:
	//DEBUG_VALUE: mas_queue_status_show:page <- $x21
	//DEBUG_VALUE: mas_queue_status_show:q <- $x19
	//DEBUG_VALUE: mas_queue_status_show:len <- $x20
	//DEBUG_VALUE: mas_blk_get_lld:q <- $x19
	.loc	2 44 14 is_stmt 1       // kernel/block/mas_blk_core.c:44:14
	ldr	x8, [x19, #2720]
	.loc	2 44 11 is_stmt 0       // kernel/block/mas_blk_core.c:44:11
	add	x9, x19, #1768          // =1768
	add	x10, x8, #16            // =16
.Ltmp499:
.LBB48_2:
	//DEBUG_VALUE: mas_queue_status_show:page <- $x21
	//DEBUG_VALUE: mas_queue_status_show:q <- $x19
	//DEBUG_VALUE: mas_queue_status_show:len <- $x20
	//DEBUG_VALUE: mas_blk_get_lld:q <- $x19
	.loc	2 0 0                   // kernel/block/mas_blk_core.c:0:0
	cmp	x8, #0                  // =0
	csel	x0, x9, x10, eq
.Ltmp500:
	//DEBUG_VALUE: mas_queue_status_show:lld <- $x0
	.loc	2 981 15 is_stmt 1      // kernel/block/mas_blk_core.c:981:15
	mov	x1, x21
	mov	w2, w20
	bl	mas_blk_dump_lld_status
.Ltmp501:
	mov	w22, w0
.Ltmp502:
	//DEBUG_VALUE: mas_queue_status_show:offset <- $w22
	.loc	2 984 35                // kernel/block/mas_blk_core.c:984:35
	add	x1, x21, w0, sxtw
	.loc	2 984 45 is_stmt 0      // kernel/block/mas_blk_core.c:984:45
	sub	w2, w20, w0
	.loc	2 983 12 is_stmt 1      // kernel/block/mas_blk_core.c:983:12
	mov	x0, x19
	bl	mas_blk_dump_queue_status2
	.loc	2 985 2                 // kernel/block/mas_blk_core.c:985:2
	ldp	x29, x30, [sp, #32]     // 16-byte Folded Reload
	ldp	x20, x19, [sp, #16]     // 16-byte Folded Reload
.Ltmp503:
	.loc	2 983 9                 // kernel/block/mas_blk_core.c:983:9
	add	w8, w0, w22
.Ltmp504:
	//DEBUG_VALUE: mas_queue_status_show:offset <- $w8
	.loc	2 985 9                 // kernel/block/mas_blk_core.c:985:9
	sxtw	x0, w8
	.loc	2 985 2 is_stmt 0       // kernel/block/mas_blk_core.c:985:2
	ldp	x22, x21, [sp], #48     // 16-byte Folded Reload
.Ltmp505:
	ret
.Ltmp506:
.LBB48_3:
	//DEBUG_VALUE: mas_queue_status_show:page <- $x21
	//DEBUG_VALUE: mas_queue_status_show:q <- $x19
	//DEBUG_VALUE: mas_queue_status_show:len <- $x20
	//DEBUG_VALUE: mas_blk_get_lld:q <- $x19
	.loc	2 46 14 is_stmt 1       // kernel/block/mas_blk_core.c:46:14
	ldr	x8, [x19, #672]
	.loc	2 46 11 is_stmt 0       // kernel/block/mas_blk_core.c:46:11
	add	x9, x19, #1768          // =1768
	add	x10, x8, #88            // =88
	b	.LBB48_2
.Ltmp507:
.Lfunc_end48:
	.size	mas_queue_status_show, .Lfunc_end48-mas_queue_status_show
	.cfi_endproc
                                        // -- End function
	.type	.L.str.1,@object        // @.str.1
	.section	.rodata.str1.1,"aMS",@progbits,1
.L.str.1:
	.asciz	"\0013[BLK-IO]%s: mq_iosched_init_fn failed. err = %d\n"
	.size	.L.str.1, 51

	.type	.L__func__.mas_blk_mq_init_allocated_queue,@object // @__func__.mas_blk_mq_init_allocated_queue
.L__func__.mas_blk_mq_init_allocated_queue:
	.asciz	"mas_blk_mq_init_allocated_queue"
	.size	.L__func__.mas_blk_mq_init_allocated_queue, 32

	.type	mas_blk_allocated_tags_init.__key,@object // @mas_blk_allocated_tags_init.__key
	.section	.bss.mas_blk_allocated_tags_init.__key,"aw",@nobits
mas_blk_allocated_tags_init.__key:
	.size	mas_blk_allocated_tags_init.__key, 0

	.type	.L.str.2,@object        // @.str.2
	.section	.rodata.str1.1,"aMS",@progbits,1
.L.str.2:
	.asciz	"&tags->tag_list_lock"
	.size	.L.str.2, 21

	.type	__kstrtab_blk_dev_write_order_preserved,@object // @__kstrtab_blk_dev_write_order_preserved
	.section	__ksymtab_strings,"a",@progbits
__kstrtab_blk_dev_write_order_preserved:
	.asciz	"blk_dev_write_order_preserved"
	.size	__kstrtab_blk_dev_write_order_preserved, 30

	.type	__ksymtab_blk_dev_write_order_preserved,@object // @__ksymtab_blk_dev_write_order_preserved
	.section	"___ksymtab+blk_dev_write_order_preserved","a",@progbits
	.p2align	3
__ksymtab_blk_dev_write_order_preserved:
	.xword	blk_dev_write_order_preserved
	.xword	__kstrtab_blk_dev_write_order_preserved
	.size	__ksymtab_blk_dev_write_order_preserved, 16

	.type	.L.str.4,@object        // @.str.4
	.section	.rodata.str1.1,"aMS",@progbits,1
.L.str.4:
	.asciz	"\0013[BLK-IO]old protocol_nr exist! %u\n"
	.size	.L.str.4, 37

	.type	__kstrtab_blk_req_get_order_nr,@object // @__kstrtab_blk_req_get_order_nr
	.section	__ksymtab_strings,"a",@progbits
__kstrtab_blk_req_get_order_nr:
	.asciz	"blk_req_get_order_nr"
	.size	__kstrtab_blk_req_get_order_nr, 21

	.type	__ksymtab_blk_req_get_order_nr,@object // @__ksymtab_blk_req_get_order_nr
	.section	"___ksymtab+blk_req_get_order_nr","a",@progbits
	.p2align	3
__ksymtab_blk_req_get_order_nr:
	.xword	blk_req_get_order_nr
	.xword	__kstrtab_blk_req_get_order_nr
	.size	__ksymtab_blk_req_get_order_nr, 16

	.type	__kstrtab_blk_queue_order_enable,@object // @__kstrtab_blk_queue_order_enable
	.section	__ksymtab_strings,"a",@progbits
__kstrtab_blk_queue_order_enable:
	.asciz	"blk_queue_order_enable"
	.size	__kstrtab_blk_queue_order_enable, 23

	.type	__ksymtab_blk_queue_order_enable,@object // @__ksymtab_blk_queue_order_enable
	.section	"___ksymtab+blk_queue_order_enable","a",@progbits
	.p2align	3
__ksymtab_blk_queue_order_enable:
	.xword	blk_queue_order_enable
	.xword	__kstrtab_blk_queue_order_enable
	.size	__ksymtab_blk_queue_order_enable, 16

	.type	__kstrtab_blk_queue_query_order_enable,@object // @__kstrtab_blk_queue_query_order_enable
	.section	__ksymtab_strings,"a",@progbits
__kstrtab_blk_queue_query_order_enable:
	.asciz	"blk_queue_query_order_enable"
	.size	__kstrtab_blk_queue_query_order_enable, 29

	.type	__ksymtab_blk_queue_query_order_enable,@object // @__ksymtab_blk_queue_query_order_enable
	.section	"___ksymtab+blk_queue_query_order_enable","a",@progbits
	.p2align	3
__ksymtab_blk_queue_query_order_enable:
	.xword	blk_queue_query_order_enable
	.xword	__kstrtab_blk_queue_query_order_enable
	.size	__ksymtab_blk_queue_query_order_enable, 16

	.type	__kstrtab_blk_order_nr_reset,@object // @__kstrtab_blk_order_nr_reset
	.section	__ksymtab_strings,"a",@progbits
__kstrtab_blk_order_nr_reset:
	.asciz	"blk_order_nr_reset"
	.size	__kstrtab_blk_order_nr_reset, 19

	.type	__ksymtab_blk_order_nr_reset,@object // @__ksymtab_blk_order_nr_reset
	.section	"___ksymtab+blk_order_nr_reset","a",@progbits
	.p2align	3
__ksymtab_blk_order_nr_reset:
	.xword	blk_order_nr_reset
	.xword	__kstrtab_blk_order_nr_reset
	.size	__ksymtab_blk_order_nr_reset, 16
