	.text
	.file	"mas_blk_flush.c"
                                        // Start of file scope inline assembly
	.section "___kcrctab+mas_blk_panic_flush", "a"	
	.weak	__crc_mas_blk_panic_flush	
	.long	__crc_mas_blk_panic_flush	
	.previous					

                                        // End of file scope inline assembly
	.file	1 "/mnt/disk/jenkins/ci/workspace/chipset_pipeline_release/opensource/component_code/vendor/huawei/extra/build/build_script/kirin_kernel_release/kernel/include/linux/export.h"
	.file	2 "/mnt/disk/jenkins/ci/workspace/chipset_pipeline_release/opensource/component_code/vendor/huawei/extra/build/build_script/kirin_kernel_release/kernel/block/mas_blk_flush.c"
	.file	3 "/mnt/disk/jenkins/ci/workspace/chipset_pipeline_release/opensource/component_code/vendor/huawei/extra/build/build_script/kirin_kernel_release/kernel/include/linux/init.h"
	.file	4 "/mnt/disk/jenkins/ci/workspace/chipset_pipeline_release/opensource/component_code/vendor/huawei/extra/build/build_script/kirin_kernel_release/kernel/include/asm-generic/int-ll64.h"
	.file	5 "/mnt/disk/jenkins/ci/workspace/chipset_pipeline_release/opensource/component_code/vendor/huawei/extra/build/build_script/kirin_kernel_release/kernel/arch/arm64/include/asm/spinlock_types.h"
	.file	6 "/mnt/disk/jenkins/ci/workspace/chipset_pipeline_release/opensource/component_code/vendor/huawei/extra/build/build_script/kirin_kernel_release/kernel/include/linux/spinlock_types.h"
	.file	7 "/mnt/disk/jenkins/ci/workspace/chipset_pipeline_release/opensource/component_code/vendor/huawei/extra/build/build_script/kirin_kernel_release/kernel/include/linux/types.h"
	.file	8 "/mnt/disk/jenkins/ci/workspace/chipset_pipeline_release/opensource/component_code/vendor/huawei/extra/build/build_script/kirin_kernel_release/kernel/include/linux/notifier.h"
	.file	9 "/mnt/disk/jenkins/ci/workspace/chipset_pipeline_release/opensource/component_code/vendor/huawei/extra/build/build_script/kirin_kernel_release/kernel/include/linux/kobject_ns.h"
	.file	10 "/mnt/disk/jenkins/ci/workspace/chipset_pipeline_release/opensource/component_code/vendor/huawei/extra/build/build_script/kirin_kernel_release/kernel/include/linux/module.h"
	.file	11 "/mnt/disk/jenkins/ci/workspace/chipset_pipeline_release/opensource/component_code/vendor/huawei/extra/build/build_script/kirin_kernel_release/kernel/include/linux/quota.h"
	.file	12 "/mnt/disk/jenkins/ci/workspace/chipset_pipeline_release/opensource/component_code/vendor/huawei/extra/build/build_script/kirin_kernel_release/kernel/include/linux/hrtimer.h"
	.file	13 "/mnt/disk/jenkins/ci/workspace/chipset_pipeline_release/opensource/component_code/vendor/huawei/extra/build/build_script/kirin_kernel_release/kernel/include/linux/mm.h"
	.file	14 "/mnt/disk/jenkins/ci/workspace/chipset_pipeline_release/opensource/component_code/vendor/huawei/extra/build/build_script/kirin_kernel_release/kernel/include/linux/restart_block.h"
	.file	15 "/mnt/disk/jenkins/ci/workspace/chipset_pipeline_release/opensource/component_code/vendor/huawei/extra/build/build_script/kirin_kernel_release/kernel/include/linux/blkdev.h"
	.file	16 "/mnt/disk/jenkins/ci/workspace/chipset_pipeline_release/opensource/component_code/vendor/huawei/extra/build/build_script/kirin_kernel_release/kernel/include/linux/elevator.h"
	.file	17 "/mnt/disk/jenkins/ci/workspace/chipset_pipeline_release/opensource/component_code/vendor/huawei/extra/build/build_script/kirin_kernel_release/kernel/block/mas_blk.h"
	.file	18 "/mnt/disk/jenkins/ci/workspace/chipset_pipeline_release/opensource/component_code/vendor/huawei/extra/build/build_script/kirin_kernel_release/kernel/include/linux/fs.h"
	.file	19 "/mnt/disk/jenkins/ci/workspace/chipset_pipeline_release/opensource/component_code/vendor/huawei/extra/build/build_script/kirin_kernel_release/kernel/include/linux/migrate_mode.h"
	.file	20 "/mnt/disk/jenkins/ci/workspace/chipset_pipeline_release/opensource/component_code/vendor/huawei/extra/build/build_script/kirin_kernel_release/kernel/include/linux/memremap.h"
	.file	21 "/mnt/disk/jenkins/ci/workspace/chipset_pipeline_release/opensource/component_code/vendor/huawei/extra/build/build_script/kirin_kernel_release/kernel/include/linux/rcu_sync.h"
	.file	22 "/mnt/disk/jenkins/ci/workspace/chipset_pipeline_release/opensource/component_code/vendor/huawei/extra/build/build_script/kirin_kernel_release/kernel/include/linux/pid.h"
	.file	23 "/mnt/disk/jenkins/ci/workspace/chipset_pipeline_release/opensource/component_code/vendor/huawei/extra/build/build_script/kirin_kernel_release/kernel/include/linux/device.h"
	.file	24 "/mnt/disk/jenkins/ci/workspace/chipset_pipeline_release/opensource/component_code/vendor/huawei/extra/build/build_script/kirin_kernel_release/kernel/include/linux/pm.h"
	.file	25 "/mnt/disk/jenkins/ci/workspace/chipset_pipeline_release/opensource/component_code/vendor/huawei/extra/build/build_script/kirin_kernel_release/kernel/include/linux/stddef.h"
	.file	26 "/mnt/disk/jenkins/ci/workspace/chipset_pipeline_release/opensource/component_code/vendor/huawei/extra/build/build_script/kirin_kernel_release/kernel/include/linux/blk_types.h"
	.file	27 "/mnt/disk/jenkins/ci/workspace/chipset_pipeline_release/opensource/component_code/vendor/huawei/extra/build/build_script/kirin_kernel_release/kernel/include/linux/hisi/powerkey_event.h"
	.file	28 "/mnt/disk/jenkins/ci/workspace/chipset_pipeline_release/opensource/component_code/vendor/huawei/extra/build/build_script/kirin_kernel_release/kernel/include/linux/workqueue.h"
	.file	29 "/mnt/disk/jenkins/ci/workspace/chipset_pipeline_release/opensource/component_code/vendor/huawei/extra/build/build_script/kirin_kernel_release/kernel/include/linux/genhd.h"
	.file	30 "/mnt/disk/jenkins/ci/workspace/chipset_pipeline_release/opensource/component_code/vendor/huawei/extra/build/build_script/kirin_kernel_release/kernel/include/linux/seqlock.h"
	.file	31 "/mnt/disk/jenkins/ci/workspace/chipset_pipeline_release/opensource/component_code/vendor/huawei/extra/build/build_script/kirin_kernel_release/kernel/include/linux/kobject.h"
	.file	32 "/mnt/disk/jenkins/ci/workspace/chipset_pipeline_release/opensource/component_code/vendor/huawei/extra/build/build_script/kirin_kernel_release/kernel/include/uapi/asm-generic/posix_types.h"
	.file	33 "/mnt/disk/jenkins/ci/workspace/chipset_pipeline_release/opensource/component_code/vendor/huawei/extra/build/build_script/kirin_kernel_release/kernel/include/linux/sysfs.h"
	.file	34 "/mnt/disk/jenkins/ci/workspace/chipset_pipeline_release/opensource/component_code/vendor/huawei/extra/build/build_script/kirin_kernel_release/kernel/include/linux/kernfs.h"
	.file	35 "/mnt/disk/jenkins/ci/workspace/chipset_pipeline_release/opensource/component_code/vendor/huawei/extra/build/build_script/kirin_kernel_release/kernel/include/linux/rbtree.h"
	.file	36 "/mnt/disk/jenkins/ci/workspace/chipset_pipeline_release/opensource/component_code/vendor/huawei/extra/build/build_script/kirin_kernel_release/kernel/include/linux/radix-tree.h"
	.file	37 "/mnt/disk/jenkins/ci/workspace/chipset_pipeline_release/opensource/component_code/vendor/huawei/extra/build/build_script/kirin_kernel_release/kernel/include/linux/idr.h"
	.file	38 "/mnt/disk/jenkins/ci/workspace/chipset_pipeline_release/opensource/component_code/vendor/huawei/extra/build/build_script/kirin_kernel_release/kernel/include/linux/seq_file.h"
	.file	39 "/mnt/disk/jenkins/ci/workspace/chipset_pipeline_release/opensource/component_code/vendor/huawei/extra/build/build_script/kirin_kernel_release/kernel/include/asm-generic/atomic-long.h"
	.file	40 "/mnt/disk/jenkins/ci/workspace/chipset_pipeline_release/opensource/component_code/vendor/huawei/extra/build/build_script/kirin_kernel_release/kernel/include/linux/mutex.h"
	.file	41 "/mnt/disk/jenkins/ci/workspace/chipset_pipeline_release/opensource/component_code/vendor/huawei/extra/build/build_script/kirin_kernel_release/kernel/include/linux/osq_lock.h"
	.file	42 "/mnt/disk/jenkins/ci/workspace/chipset_pipeline_release/opensource/component_code/vendor/huawei/extra/build/build_script/kirin_kernel_release/kernel/include/linux/llist.h"
	.file	43 "/mnt/disk/jenkins/ci/workspace/chipset_pipeline_release/opensource/component_code/vendor/huawei/extra/build/build_script/kirin_kernel_release/kernel/include/linux/path.h"
	.file	44 "/mnt/disk/jenkins/ci/workspace/chipset_pipeline_release/opensource/component_code/vendor/huawei/extra/build/build_script/kirin_kernel_release/kernel/include/linux/dcache.h"
	.file	45 "/mnt/disk/jenkins/ci/workspace/chipset_pipeline_release/opensource/component_code/vendor/huawei/extra/build/build_script/kirin_kernel_release/kernel/include/linux/list_bl.h"
	.file	46 "/mnt/disk/jenkins/ci/workspace/chipset_pipeline_release/opensource/component_code/vendor/huawei/extra/build/build_script/kirin_kernel_release/kernel/include/linux/uidgid.h"
	.file	47 "/mnt/disk/jenkins/ci/workspace/chipset_pipeline_release/opensource/component_code/vendor/huawei/extra/build/build_script/kirin_kernel_release/kernel/include/linux/delayed_call.h"
	.file	48 "/mnt/disk/jenkins/ci/workspace/chipset_pipeline_release/opensource/component_code/vendor/huawei/extra/build/build_script/kirin_kernel_release/kernel/include/uapi/asm-generic/int-ll64.h"
	.file	49 "/mnt/disk/jenkins/ci/workspace/chipset_pipeline_release/opensource/component_code/vendor/huawei/extra/build/build_script/kirin_kernel_release/kernel/include/uapi/linux/time.h"
	.file	50 "/mnt/disk/jenkins/ci/workspace/chipset_pipeline_release/opensource/component_code/vendor/huawei/extra/build/build_script/kirin_kernel_release/kernel/include/linux/stat.h"
	.file	51 "/mnt/disk/jenkins/ci/workspace/chipset_pipeline_release/opensource/component_code/vendor/huawei/extra/build/build_script/kirin_kernel_release/kernel/include/uapi/linux/fiemap.h"
	.file	52 "/mnt/disk/jenkins/ci/workspace/chipset_pipeline_release/opensource/component_code/vendor/huawei/extra/build/build_script/kirin_kernel_release/kernel/include/linux/completion.h"
	.file	53 "/mnt/disk/jenkins/ci/workspace/chipset_pipeline_release/opensource/component_code/vendor/huawei/extra/build/build_script/kirin_kernel_release/kernel/include/linux/wait.h"
	.file	54 "/mnt/disk/jenkins/ci/workspace/chipset_pipeline_release/opensource/component_code/vendor/huawei/extra/build/build_script/kirin_kernel_release/kernel/include/linux/cfi.h"
	.file	55 "/mnt/disk/jenkins/ci/workspace/chipset_pipeline_release/opensource/component_code/vendor/huawei/extra/build/build_script/kirin_kernel_release/kernel/include/linux/moduleparam.h"
	.file	56 "/mnt/disk/jenkins/ci/workspace/chipset_pipeline_release/opensource/component_code/vendor/huawei/extra/build/build_script/kirin_kernel_release/kernel/arch/arm64/include/asm/extable.h"
	.file	57 "/mnt/disk/jenkins/ci/workspace/chipset_pipeline_release/opensource/component_code/vendor/huawei/extra/build/build_script/kirin_kernel_release/kernel/include/linux/rbtree_latch.h"
	.file	58 "/mnt/disk/jenkins/ci/workspace/chipset_pipeline_release/opensource/component_code/vendor/huawei/extra/build/build_script/kirin_kernel_release/kernel/include/uapi/linux/elf.h"
	.file	59 "/mnt/disk/jenkins/ci/workspace/chipset_pipeline_release/opensource/component_code/vendor/huawei/extra/build/build_script/kirin_kernel_release/kernel/arch/arm64/include/asm/module.h"
	.file	60 "/mnt/disk/jenkins/ci/workspace/chipset_pipeline_release/opensource/component_code/vendor/huawei/extra/build/build_script/kirin_kernel_release/kernel/include/uapi/linux/types.h"
	.file	61 "/mnt/disk/jenkins/ci/workspace/chipset_pipeline_release/opensource/component_code/vendor/huawei/extra/build/build_script/kirin_kernel_release/kernel/include/asm-generic/bug.h"
	.file	62 "/mnt/disk/jenkins/ci/workspace/chipset_pipeline_release/opensource/component_code/vendor/huawei/extra/build/build_script/kirin_kernel_release/kernel/include/linux/tracepoint-defs.h"
	.file	63 "/mnt/disk/jenkins/ci/workspace/chipset_pipeline_release/opensource/component_code/vendor/huawei/extra/build/build_script/kirin_kernel_release/kernel/include/linux/jump_label.h"
	.file	64 "/mnt/disk/jenkins/ci/workspace/chipset_pipeline_release/opensource/component_code/vendor/huawei/extra/build/build_script/kirin_kernel_release/kernel/include/linux/tracepoint.h"
	.file	65 "/mnt/disk/jenkins/ci/workspace/chipset_pipeline_release/opensource/component_code/vendor/huawei/extra/build/build_script/kirin_kernel_release/kernel/include/linux/lockdep.h"
	.file	66 "/mnt/disk/jenkins/ci/workspace/chipset_pipeline_release/opensource/component_code/vendor/huawei/extra/build/build_script/kirin_kernel_release/kernel/include/linux/projid.h"
	.file	67 "/mnt/disk/jenkins/ci/workspace/chipset_pipeline_release/opensource/component_code/vendor/huawei/extra/build/build_script/kirin_kernel_release/kernel/include/linux/time64.h"
	.file	68 "/mnt/disk/jenkins/ci/workspace/chipset_pipeline_release/opensource/component_code/vendor/huawei/extra/build/build_script/kirin_kernel_release/kernel/include/linux/mm_types.h"
	.file	69 "/mnt/disk/jenkins/ci/workspace/chipset_pipeline_release/opensource/component_code/vendor/huawei/extra/build/build_script/kirin_kernel_release/kernel/include/linux/rwsem.h"
	.file	70 "/mnt/disk/jenkins/ci/workspace/chipset_pipeline_release/opensource/component_code/vendor/huawei/extra/build/build_script/kirin_kernel_release/kernel/arch/arm64/include/asm/thread_info.h"
	.file	71 "/mnt/disk/jenkins/ci/workspace/chipset_pipeline_release/opensource/component_code/vendor/huawei/extra/build/build_script/kirin_kernel_release/kernel/include/linux/sched.h"
	.file	72 "/mnt/disk/jenkins/ci/workspace/chipset_pipeline_release/opensource/component_code/vendor/huawei/extra/build/build_script/kirin_kernel_release/kernel/include/linux/cpumask.h"
	.file	73 "/mnt/disk/jenkins/ci/workspace/chipset_pipeline_release/opensource/component_code/vendor/huawei/extra/build/build_script/kirin_kernel_release/kernel/include/linux/timerqueue.h"
	.file	74 "/mnt/disk/jenkins/ci/workspace/chipset_pipeline_release/opensource/component_code/vendor/huawei/extra/build/build_script/kirin_kernel_release/kernel/include/linux/ktime.h"
	.file	75 "/mnt/disk/jenkins/ci/workspace/chipset_pipeline_release/opensource/component_code/vendor/huawei/extra/build/build_script/kirin_kernel_release/kernel/include/linux/plist.h"
	.file	76 "/mnt/disk/jenkins/ci/workspace/chipset_pipeline_release/opensource/component_code/vendor/huawei/extra/build/build_script/kirin_kernel_release/kernel/arch/arm64/include/asm/pgtable-types.h"
	.file	77 "/mnt/disk/jenkins/ci/workspace/chipset_pipeline_release/opensource/component_code/vendor/huawei/extra/build/build_script/kirin_kernel_release/kernel/include/asm-generic/pgtable-nop4d-hack.h"
	.file	78 "/mnt/disk/jenkins/ci/workspace/chipset_pipeline_release/opensource/component_code/vendor/huawei/extra/build/build_script/kirin_kernel_release/kernel/arch/arm64/include/asm/page.h"
	.file	79 "/mnt/disk/jenkins/ci/workspace/chipset_pipeline_release/opensource/component_code/vendor/huawei/extra/build/build_script/kirin_kernel_release/kernel/include/linux/rwlock_types.h"
	.file	80 "/mnt/disk/jenkins/ci/workspace/chipset_pipeline_release/opensource/component_code/vendor/huawei/extra/build/build_script/kirin_kernel_release/kernel/include/linux/mm_types_task.h"
	.file	81 "/mnt/disk/jenkins/ci/workspace/chipset_pipeline_release/opensource/component_code/vendor/huawei/extra/build/build_script/kirin_kernel_release/kernel/arch/arm64/include/asm/mmu.h"
	.file	82 "/mnt/disk/jenkins/ci/workspace/chipset_pipeline_release/opensource/component_code/vendor/huawei/extra/build/build_script/kirin_kernel_release/kernel/include/linux/uprobes.h"
	.file	83 "/mnt/disk/jenkins/ci/workspace/chipset_pipeline_release/opensource/component_code/vendor/huawei/extra/build/build_script/kirin_kernel_release/kernel/arch/arm64/include/asm/compat.h"
	.file	84 "/mnt/disk/jenkins/ci/workspace/chipset_pipeline_release/opensource/component_code/vendor/huawei/extra/build/build_script/kirin_kernel_release/kernel/include/uapi/asm-generic/poll.h"
	.file	85 "/mnt/disk/jenkins/ci/workspace/chipset_pipeline_release/opensource/component_code/vendor/huawei/extra/build/build_script/kirin_kernel_release/kernel/include/linux/cred.h"
	.file	86 "/mnt/disk/jenkins/ci/workspace/chipset_pipeline_release/opensource/component_code/vendor/huawei/extra/build/build_script/kirin_kernel_release/kernel/include/linux/capability.h"
	.file	87 "/mnt/disk/jenkins/ci/workspace/chipset_pipeline_release/opensource/component_code/vendor/huawei/extra/build/build_script/kirin_kernel_release/kernel/include/linux/refcount.h"
	.file	88 "/mnt/disk/jenkins/ci/workspace/chipset_pipeline_release/opensource/component_code/vendor/huawei/extra/build/build_script/kirin_kernel_release/kernel/include/linux/key.h"
	.file	89 "/mnt/disk/jenkins/ci/workspace/chipset_pipeline_release/opensource/component_code/vendor/huawei/extra/build/build_script/kirin_kernel_release/kernel/include/linux/assoc_array.h"
	.file	90 "/mnt/disk/jenkins/ci/workspace/chipset_pipeline_release/opensource/component_code/vendor/huawei/extra/build/build_script/kirin_kernel_release/kernel/include/linux/sched/user.h"
	.file	91 "/mnt/disk/jenkins/ci/workspace/chipset_pipeline_release/opensource/component_code/vendor/huawei/extra/build/build_script/kirin_kernel_release/kernel/include/uapi/asm-generic/signal.h"
	.file	92 "/mnt/disk/jenkins/ci/workspace/chipset_pipeline_release/opensource/component_code/vendor/huawei/extra/build/build_script/kirin_kernel_release/kernel/include/linux/signal_types.h"
	.file	93 "/mnt/disk/jenkins/ci/workspace/chipset_pipeline_release/opensource/component_code/vendor/huawei/extra/build/build_script/kirin_kernel_release/kernel/include/linux/seccomp.h"
	.file	94 "/mnt/disk/jenkins/ci/workspace/chipset_pipeline_release/opensource/component_code/vendor/huawei/extra/build/build_script/kirin_kernel_release/kernel/include/linux/bvec.h"
	.file	95 "/mnt/disk/jenkins/ci/workspace/chipset_pipeline_release/opensource/component_code/vendor/huawei/extra/build/build_script/kirin_kernel_release/kernel/include/linux/smp.h"
	.file	96 "/mnt/disk/jenkins/ci/workspace/chipset_pipeline_release/opensource/component_code/vendor/huawei/extra/build/build_script/kirin_kernel_release/kernel/block/blk-mq.h"
	.file	97 "/mnt/disk/jenkins/ci/workspace/chipset_pipeline_release/opensource/component_code/vendor/huawei/extra/build/build_script/kirin_kernel_release/kernel/include/linux/iocontext.h"
	.file	98 "/mnt/disk/jenkins/ci/workspace/chipset_pipeline_release/opensource/component_code/vendor/huawei/extra/build/build_script/kirin_kernel_release/kernel/include/linux/mempool.h"
	.file	99 "/mnt/disk/jenkins/ci/workspace/chipset_pipeline_release/opensource/component_code/vendor/huawei/extra/build/build_script/kirin_kernel_release/kernel/include/linux/blk-mq.h"
	.file	100 "/mnt/disk/jenkins/ci/workspace/chipset_pipeline_release/opensource/component_code/vendor/huawei/extra/build/build_script/kirin_kernel_release/kernel/include/linux/timer.h"
	.file	101 "/mnt/disk/jenkins/ci/workspace/chipset_pipeline_release/opensource/component_code/vendor/huawei/extra/build/build_script/kirin_kernel_release/kernel/block/blk.h"
	.file	102 "/mnt/disk/jenkins/ci/workspace/chipset_pipeline_release/opensource/component_code/vendor/huawei/extra/build/build_script/kirin_kernel_release/kernel/include/linux/sbitmap.h"
	.file	103 "/mnt/disk/jenkins/ci/workspace/chipset_pipeline_release/opensource/component_code/vendor/huawei/extra/build/build_script/kirin_kernel_release/kernel/block/blk-mq-tag.h"
	.file	104 "/mnt/disk/jenkins/ci/workspace/chipset_pipeline_release/opensource/component_code/vendor/huawei/extra/build/build_script/kirin_kernel_release/kernel/include/linux/srcutree.h"
	.file	105 "/mnt/disk/jenkins/ci/workspace/chipset_pipeline_release/opensource/component_code/vendor/huawei/extra/build/build_script/kirin_kernel_release/kernel/include/linux/rcu_segcblist.h"
	.file	106 "/mnt/disk/jenkins/ci/workspace/chipset_pipeline_release/opensource/component_code/vendor/huawei/extra/build/build_script/kirin_kernel_release/kernel/include/linux/backing-dev-defs.h"
	.file	107 "/mnt/disk/jenkins/ci/workspace/chipset_pipeline_release/opensource/component_code/vendor/huawei/extra/build/build_script/kirin_kernel_release/kernel/include/linux/kref.h"
	.file	108 "/mnt/disk/jenkins/ci/workspace/chipset_pipeline_release/opensource/component_code/vendor/huawei/extra/build/build_script/kirin_kernel_release/kernel/include/linux/percpu_counter.h"
	.file	109 "/mnt/disk/jenkins/ci/workspace/chipset_pipeline_release/opensource/component_code/vendor/huawei/extra/build/build_script/kirin_kernel_release/kernel/include/linux/flex_proportions.h"
	.file	110 "/mnt/disk/jenkins/ci/workspace/chipset_pipeline_release/opensource/component_code/vendor/huawei/extra/build/build_script/kirin_kernel_release/kernel/include/linux/percpu-refcount.h"
	.file	111 "/mnt/disk/jenkins/ci/workspace/chipset_pipeline_release/opensource/component_code/vendor/huawei/extra/build/build_script/kirin_kernel_release/kernel/block/blk-stat.h"
	.file	112 "/mnt/disk/jenkins/ci/workspace/chipset_pipeline_release/opensource/component_code/vendor/huawei/extra/build/build_script/kirin_kernel_release/kernel/include/linux/bsg.h"
	.file	113 "/mnt/disk/jenkins/ci/workspace/chipset_pipeline_release/opensource/component_code/vendor/huawei/extra/build/build_script/kirin_kernel_release/kernel/include/linux/bio.h"
	.file	114 "/mnt/disk/jenkins/ci/workspace/chipset_pipeline_release/opensource/component_code/vendor/huawei/extra/build/build_script/kirin_kernel_release/kernel/include/uapi/asm-generic/siginfo.h"
	.file	115 "/mnt/disk/jenkins/ci/workspace/chipset_pipeline_release/opensource/component_code/vendor/huawei/extra/build/build_script/kirin_kernel_release/kernel/include/linux/task_io_accounting.h"
	.file	116 "/mnt/disk/jenkins/ci/workspace/chipset_pipeline_release/opensource/component_code/vendor/huawei/extra/build/build_script/kirin_kernel_release/kernel/include/linux/nodemask.h"
	.file	117 "/mnt/disk/jenkins/ci/workspace/chipset_pipeline_release/opensource/component_code/vendor/huawei/extra/build/build_script/kirin_kernel_release/kernel/include/linux/compat.h"
	.file	118 "/mnt/disk/jenkins/ci/workspace/chipset_pipeline_release/opensource/component_code/vendor/huawei/extra/build/build_script/kirin_kernel_release/kernel/arch/arm64/include/asm/processor.h"
	.file	119 "/mnt/disk/jenkins/ci/workspace/chipset_pipeline_release/opensource/component_code/vendor/huawei/extra/build/build_script/kirin_kernel_release/kernel/block/mas_blk_flush.c"
	.file	120 "/mnt/disk/jenkins/ci/workspace/chipset_pipeline_release/opensource/component_code/vendor/huawei/extra/build/build_script/kirin_kernel_release/kernel/arch/arm64/include/uapi/asm/ptrace.h"
	.file	121 "/mnt/disk/jenkins/ci/workspace/chipset_pipeline_release/opensource/component_code/vendor/huawei/extra/build/build_script/kirin_kernel_release/kernel/arch/arm64/include/asm/fpsimd.h"
	.file	122 "/mnt/disk/jenkins/ci/workspace/chipset_pipeline_release/opensource/component_code/vendor/huawei/extra/build/build_script/kirin_kernel_release/kernel/include/linux/uio.h"
	.file	123 "/mnt/disk/jenkins/ci/workspace/chipset_pipeline_release/opensource/component_code/vendor/huawei/extra/build/build_script/kirin_kernel_release/kernel/include/uapi/linux/uio.h"
	.file	124 "/mnt/disk/jenkins/ci/workspace/chipset_pipeline_release/opensource/component_code/vendor/huawei/extra/build/build_script/kirin_kernel_release/kernel/include/linux/mmzone.h"
	.file	125 "/mnt/disk/jenkins/ci/workspace/chipset_pipeline_release/opensource/component_code/vendor/huawei/extra/build/build_script/kirin_kernel_release/kernel/include/linux/errseq.h"
	.file	126 "/mnt/disk/jenkins/ci/workspace/chipset_pipeline_release/opensource/component_code/vendor/huawei/extra/build/build_script/kirin_kernel_release/kernel/include/linux/ioport.h"
	.file	127 "/mnt/disk/jenkins/ci/workspace/chipset_pipeline_release/opensource/component_code/vendor/huawei/extra/build/build_script/kirin_kernel_release/kernel/include/linux/shrinker.h"
	.file	128 "/mnt/disk/jenkins/ci/workspace/chipset_pipeline_release/opensource/component_code/vendor/huawei/extra/build/build_script/kirin_kernel_release/kernel/include/linux/percpu-rwsem.h"
	.file	129 "/mnt/disk/jenkins/ci/workspace/chipset_pipeline_release/opensource/component_code/vendor/huawei/extra/build/build_script/kirin_kernel_release/kernel/include/linux/rcuwait.h"
	.file	130 "/mnt/disk/jenkins/ci/workspace/chipset_pipeline_release/opensource/component_code/vendor/huawei/extra/build/build_script/kirin_kernel_release/kernel/include/linux/uuid.h"
	.file	131 "/mnt/disk/jenkins/ci/workspace/chipset_pipeline_release/opensource/component_code/vendor/huawei/extra/build/build_script/kirin_kernel_release/kernel/include/linux/list_lru.h"
	.file	132 "/mnt/disk/jenkins/ci/workspace/chipset_pipeline_release/opensource/component_code/vendor/huawei/extra/build/build_script/kirin_kernel_release/kernel/include/linux/poll.h"
	.file	133 "/mnt/disk/jenkins/ci/workspace/chipset_pipeline_release/opensource/component_code/vendor/huawei/extra/build/build_script/kirin_kernel_release/kernel/include/linux/nfs_fs_i.h"
	.file	134 "/mnt/disk/jenkins/ci/workspace/chipset_pipeline_release/opensource/component_code/vendor/huawei/extra/build/build_script/kirin_kernel_release/kernel/include/linux/lockref.h"
	.file	135 "/mnt/disk/jenkins/ci/workspace/chipset_pipeline_release/opensource/component_code/vendor/huawei/extra/build/build_script/kirin_kernel_release/kernel/include/linux/pm_wakeup.h"
	.file	136 "/mnt/disk/jenkins/ci/workspace/chipset_pipeline_release/opensource/component_code/vendor/huawei/extra/build/build_script/kirin_kernel_release/kernel/include/linux/pinctrl/devinfo.h"
	.file	137 "/mnt/disk/jenkins/ci/workspace/chipset_pipeline_release/opensource/component_code/vendor/huawei/extra/build/build_script/kirin_kernel_release/kernel/arch/arm64/include/asm/device.h"
	.file	138 "/mnt/disk/jenkins/ci/workspace/chipset_pipeline_release/opensource/component_code/vendor/huawei/extra/build/build_script/kirin_kernel_release/kernel/include/linux/klist.h"
	.section	.text.mas_blk_flush_work_fn,"ax",@progbits
	.hidden	mas_blk_flush_work_fn   // -- Begin function mas_blk_flush_work_fn
	.globl	mas_blk_flush_work_fn
	.p2align	2
	.type	mas_blk_flush_work_fn,@function
mas_blk_flush_work_fn:                  // @mas_blk_flush_work_fn
.Lfunc_begin0:
	.loc	2 41 0                  // kernel/block/mas_blk_flush.c:41:0
	.cfi_sections .debug_frame
	.cfi_startproc
// %bb.0:
	//DEBUG_VALUE: mas_blk_flush_work_fn:work <- $x0
	//DEBUG_VALUE: mas_blk_flush_work_fn:work <- $x0
	str	x19, [sp, #-32]!        // 8-byte Folded Spill
	stp	x29, x30, [sp, #16]     // 16-byte Folded Spill
	add	x29, sp, #16            // =16
	.cfi_def_cfa w29, 16
	.cfi_offset w30, -8
	.cfi_offset w29, -16
	.cfi_offset w19, -32
.Ltmp0:
	//DEBUG_VALUE: __mptr <- $x0
	//DEBUG_VALUE: __mptr <- $x0
	//DEBUG_VALUE: mas_blk_flush_work_fn:member <- [DW_OP_constu 24, DW_OP_minus, DW_OP_stack_value] $x0
	//DEBUG_VALUE: mas_blk_flush_work_fn:member <- [DW_OP_constu 24, DW_OP_minus, DW_OP_stack_value] $x0
	//DEBUG_VALUE: __mptr <- [DW_OP_constu 24, DW_OP_minus, DW_OP_stack_value] $x0
	//DEBUG_VALUE: __mptr <- [DW_OP_constu 24, DW_OP_minus, DW_OP_stack_value] $x0
	//DEBUG_VALUE: mas_blk_flush_work_fn:q <- undef
	.loc	2 46 54 prologue_end    // kernel/block/mas_blk_flush.c:46:54
	ldur	x0, [x0, #-24]
.Ltmp1:
	.loc	2 46 30 is_stmt 0       // kernel/block/mas_blk_flush.c:46:30
	mov	w1, wzr
	bl	bdget_disk
	.loc	2 48 6 is_stmt 1        // kernel/block/mas_blk_flush.c:48:6
	cbz	x0, .LBB0_6
// %bb.1:
.Ltmp2:
	.loc	2 49 13                 // kernel/block/mas_blk_flush.c:49:13
	orr	w1, wzr, #0x2
	mov	x2, xzr
.Ltmp3:
	.loc	2 0 0 is_stmt 0         // kernel/block/mas_blk_flush.c:0:0
	mov	x19, x0
.Ltmp4:
	//DEBUG_VALUE: mas_blk_flush_work_fn:bdev <- $x19
	.loc	2 49 13                 // kernel/block/mas_blk_flush.c:49:13
	bl	blkdev_get
.Ltmp5:
	//DEBUG_VALUE: ret <- $w0
	.loc	2 51 7 is_stmt 1        // kernel/block/mas_blk_flush.c:51:7
	cbz	w0, .LBB0_3
.Ltmp6:
// %bb.2:
	//DEBUG_VALUE: ret <- $w0
	//DEBUG_VALUE: mas_blk_flush_work_fn:bdev <- $x19
	.loc	2 52 4                  // kernel/block/mas_blk_flush.c:52:4
	adrp	x0, .L.str
.Ltmp7:
	adrp	x1, .L__func__.mas_blk_flush_work_fn
	add	x0, x0, :lo12:.L.str
	add	x1, x1, :lo12:.L__func__.mas_blk_flush_work_fn
	bl	printk
	b	.LBB0_6
.Ltmp8:
.LBB0_3:
	//DEBUG_VALUE: ret <- $w0
	//DEBUG_VALUE: mas_blk_flush_work_fn:bdev <- $x19
	.loc	2 55 9                  // kernel/block/mas_blk_flush.c:55:9
	mov	w1, #192
	movk	w1, #320, lsl #16
	mov	x0, x19
.Ltmp9:
	mov	x2, xzr
	bl	blkdev_issue_flush
.Ltmp10:
	//DEBUG_VALUE: ret <- $w0
	.loc	2 56 7                  // kernel/block/mas_blk_flush.c:56:7
	cbz	w0, .LBB0_5
.Ltmp11:
// %bb.4:
	//DEBUG_VALUE: ret <- $w0
	//DEBUG_VALUE: mas_blk_flush_work_fn:bdev <- $x19
	.loc	2 57 4                  // kernel/block/mas_blk_flush.c:57:4
	adrp	x0, .L.str.1
.Ltmp12:
	adrp	x1, .L__func__.mas_blk_flush_work_fn
	add	x0, x0, :lo12:.L.str.1
	add	x1, x1, :lo12:.L__func__.mas_blk_flush_work_fn
	bl	printk
.Ltmp13:
.LBB0_5:
	//DEBUG_VALUE: mas_blk_flush_work_fn:bdev <- $x19
	.loc	2 58 3                  // kernel/block/mas_blk_flush.c:58:3
	orr	w1, wzr, #0x2
	mov	x0, x19
	bl	blkdev_put
.Ltmp14:
.LBB0_6:
	.loc	2 60 1                  // kernel/block/mas_blk_flush.c:60:1
	ldp	x29, x30, [sp, #16]     // 16-byte Folded Reload
	ldr	x19, [sp], #32          // 8-byte Folded Reload
	ret
.Ltmp15:
.Lfunc_end0:
	.size	mas_blk_flush_work_fn, .Lfunc_end0-mas_blk_flush_work_fn
	.cfi_endproc
                                        // -- End function
	.section	.text.mas_blk_flush_async_dispatch,"ax",@progbits
	.hidden	mas_blk_flush_async_dispatch // -- Begin function mas_blk_flush_async_dispatch
	.globl	mas_blk_flush_async_dispatch
	.p2align	2
	.type	mas_blk_flush_async_dispatch,@function
mas_blk_flush_async_dispatch:           // @mas_blk_flush_async_dispatch
.Lfunc_begin1:
	.loc	2 67 0                  // kernel/block/mas_blk_flush.c:67:0
	.cfi_startproc
// %bb.0:
	//DEBUG_VALUE: mas_blk_flush_async_dispatch:q <- $x0
	//DEBUG_VALUE: mas_blk_flush_async_dispatch:q <- $x0
	//DEBUG_VALUE: mas_blk_flush_async_dispatch:bio <- $x1
	//DEBUG_VALUE: mas_blk_flush_async_dispatch:mas_queue <- [DW_OP_plus_uconst 1496, DW_OP_stack_value] $x0
	//DEBUG_VALUE: mas_blk_flush_async_dispatch:mas_queue <- [DW_OP_plus_uconst 1496, DW_OP_stack_value] $x0
	.loc	2 77 6 prologue_end     // kernel/block/mas_blk_flush.c:77:6
	ldr	w8, [x0, #1640]
.Ltmp16:
	//DEBUG_VALUE: mas_blk_flush_async_dispatch:bio <- $x1
	.loc	2 77 6 is_stmt 0        // kernel/block/mas_blk_flush.c:77:6
	cbz	w8, .LBB1_5
.Ltmp17:
// %bb.1:
	//DEBUG_VALUE: mas_blk_flush_async_dispatch:mas_queue <- [DW_OP_plus_uconst 1496, DW_OP_stack_value] $x0
	//DEBUG_VALUE: mas_blk_flush_async_dispatch:bio <- $x1
	//DEBUG_VALUE: mas_blk_flush_async_dispatch:q <- $x0
	.loc	2 80 6 is_stmt 1        // kernel/block/mas_blk_flush.c:80:6
	ldr	w8, [x1, #16]
	tbz	w8, #19, .LBB1_3
.Ltmp18:
// %bb.2:
	//DEBUG_VALUE: mas_blk_flush_async_dispatch:mas_queue <- [DW_OP_plus_uconst 1496, DW_OP_stack_value] $x0
	//DEBUG_VALUE: mas_blk_flush_async_dispatch:bio <- $x1
	//DEBUG_VALUE: mas_blk_flush_async_dispatch:q <- $x0
	ldr	w9, [x1, #56]
.Ltmp19:
	.loc	2 80 6 is_stmt 0        // kernel/block/mas_blk_flush.c:80:6
	cbz	w9, .LBB1_6
.Ltmp20:
.LBB1_3:
	//DEBUG_VALUE: mas_blk_flush_async_dispatch:mas_queue <- [DW_OP_plus_uconst 1496, DW_OP_stack_value] $x0
	//DEBUG_VALUE: mas_blk_flush_async_dispatch:bio <- $x1
	//DEBUG_VALUE: mas_blk_flush_async_dispatch:q <- $x0
	//DEBUG_LABEL: mas_blk_flush_async_dispatch:out
	.loc	2 112 6 is_stmt 1       // kernel/block/mas_blk_flush.c:112:6
	and	w8, w8, #0xff
.Ltmp21:
	.loc	2 112 6 is_stmt 0       // kernel/block/mas_blk_flush.c:112:6
	cmp	w8, #1                  // =1
	b.ne	.LBB1_5
.Ltmp22:
// %bb.4:
	//DEBUG_VALUE: mas_blk_flush_async_dispatch:mas_queue <- [DW_OP_plus_uconst 1496, DW_OP_stack_value] $x0
	//DEBUG_VALUE: mas_blk_flush_async_dispatch:bio <- $x1
	//DEBUG_VALUE: mas_blk_flush_async_dispatch:q <- $x0
	//DEBUG_VALUE: atomic_add:i <- 1
	//DEBUG_VALUE: atomic_add:v <- [DW_OP_plus_uconst 1620, DW_OP_stack_value] $x0
	.file	139 "/mnt/disk/jenkins/ci/workspace/chipset_pipeline_release/opensource/component_code/vendor/huawei/extra/build/build_script/kirin_kernel_release/kernel/arch/arm64/include/asm/atomic_ll_sc.h"
	.loc	139 113 1 is_stmt 1     // kernel/arch/arm64/include/asm/atomic_ll_sc.h:113:1
	add	x8, x0, #1620           // =1620
	//APP
	// atomic_add
	prfm	pstl1strm, [x8]
1:	ldxr	w9, [x8]
	add	w9, w9, #1
	stxr	w10, w9, [x8]
	cbnz	w10, 1b
	//NO_APP
.Ltmp23:
.LBB1_5:
	//DEBUG_VALUE: mas_blk_flush_async_dispatch:mas_queue <- [DW_OP_plus_uconst 1496, DW_OP_stack_value] $x0
	//DEBUG_VALUE: mas_blk_flush_async_dispatch:bio <- $x1
	//DEBUG_VALUE: mas_blk_flush_async_dispatch:q <- $x0
	//DEBUG_VALUE: atomic_add:tmp <- undef
	//DEBUG_VALUE: atomic_add:result <- undef
	.loc	2 0 0 is_stmt 0         // kernel/block/mas_blk_flush.c:0:0
	mov	w0, wzr
.Ltmp24:
	.loc	2 116 1 is_stmt 1       // kernel/block/mas_blk_flush.c:116:1
	ret
.Ltmp25:
.LBB1_6:
	//DEBUG_VALUE: mas_blk_flush_async_dispatch:mas_queue <- [DW_OP_plus_uconst 1496, DW_OP_stack_value] $x0
	//DEBUG_VALUE: mas_blk_flush_async_dispatch:bio <- $x1
	//DEBUG_VALUE: mas_blk_flush_async_dispatch:q <- $x0
	.loc	2 89 19                 // kernel/block/mas_blk_flush.c:89:19
	ldrb	w9, [x1, #154]
.Ltmp26:
	.loc	2 89 6 is_stmt 0        // kernel/block/mas_blk_flush.c:89:6
	cbz	w9, .LBB1_8
.Ltmp27:
// %bb.7:
	//DEBUG_VALUE: mas_blk_flush_async_dispatch:mas_queue <- [DW_OP_plus_uconst 1496, DW_OP_stack_value] $x0
	//DEBUG_VALUE: mas_blk_flush_async_dispatch:bio <- $x1
	//DEBUG_VALUE: mas_blk_flush_async_dispatch:q <- $x0
	str	x19, [sp, #-32]!        // 8-byte Folded Spill
	stp	x29, x30, [sp, #16]     // 16-byte Folded Spill
	add	x29, sp, #16            // =16
	.cfi_def_cfa w29, 16
	.cfi_offset w30, -8
	.cfi_offset w29, -16
	.cfi_offset w19, -32
.Ltmp28:
	.loc	2 90 35 is_stmt 1       // kernel/block/mas_blk_flush.c:90:35
	add	x19, x0, #1520          // =1520
	.loc	2 90 3 is_stmt 0        // kernel/block/mas_blk_flush.c:90:3
	mov	x0, x19
.Ltmp29:
	bl	cancel_delayed_work
.Ltmp30:
	.loc	2 91 22 is_stmt 1       // kernel/block/mas_blk_flush.c:91:22
	adrp	x8, blk_async_flush_workqueue
	ldr	x1, [x8, :lo12:blk_async_flush_workqueue]
.Ltmp31:
	//DEBUG_VALUE: queue_delayed_work:delay <- 5
	//DEBUG_VALUE: queue_delayed_work:wq <- $x1
	//DEBUG_VALUE: queue_delayed_work:dwork <- $x19
	.loc	28 506 9                // kernel/include/linux/workqueue.h:506:9
	orr	w0, wzr, #0x8
	mov	w3, #5
	mov	x2, x19
	bl	queue_delayed_work_on
.Ltmp32:
	.loc	2 97 3                  // kernel/block/mas_blk_flush.c:97:3
	ldp	x29, x30, [sp, #16]     // 16-byte Folded Reload
	orr	w0, wzr, #0x1
	ldr	x19, [sp], #32          // 8-byte Folded Reload
.Ltmp33:
	.loc	2 116 1                 // kernel/block/mas_blk_flush.c:116:1
	ret
.LBB1_8:
.Ltmp34:
	//DEBUG_VALUE: mas_blk_flush_async_dispatch:mas_queue <- [DW_OP_plus_uconst 1496, DW_OP_stack_value] $x0
	//DEBUG_VALUE: mas_blk_flush_async_dispatch:bio <- $x1
	//DEBUG_VALUE: mas_blk_flush_async_dispatch:q <- $x0
	//DEBUG_VALUE: __read_once_size:p <- [DW_OP_plus_uconst 1620, DW_OP_stack_value] $x0
	//DEBUG_VALUE: __read_once_size:res <- undef
	//DEBUG_VALUE: __read_once_size:size <- 4
	.file	140 "/mnt/disk/jenkins/ci/workspace/chipset_pipeline_release/opensource/component_code/vendor/huawei/extra/build/build_script/kirin_kernel_release/kernel/include/linux/compiler.h"
	.loc	140 183 2               // kernel/include/linux/compiler.h:183:2
	ldr	w9, [x0, #1620]
.Ltmp35:
	.loc	2 100 6                 // kernel/block/mas_blk_flush.c:100:6
	cbnz	w9, .LBB1_3
.Ltmp36:
// %bb.9:
	//DEBUG_VALUE: mas_blk_flush_async_dispatch:mas_queue <- [DW_OP_plus_uconst 1496, DW_OP_stack_value] $x0
	//DEBUG_VALUE: mas_blk_flush_async_dispatch:bio <- $x1
	//DEBUG_VALUE: mas_blk_flush_async_dispatch:q <- $x0
	.loc	2 0 6 is_stmt 0         // kernel/block/mas_blk_flush.c:0:6
	orr	w0, wzr, #0x1
.Ltmp37:
	.loc	2 116 1 is_stmt 1       // kernel/block/mas_blk_flush.c:116:1
	ret
.Ltmp38:
.Lfunc_end1:
	.size	mas_blk_flush_async_dispatch, .Lfunc_end1-mas_blk_flush_async_dispatch
	.cfi_endproc
                                        // -- End function
	.section	.text.mas_blk_flush_update,"ax",@progbits
	.hidden	mas_blk_flush_update    // -- Begin function mas_blk_flush_update
	.globl	mas_blk_flush_update
	.p2align	2
	.type	mas_blk_flush_update,@function
mas_blk_flush_update:                   // @mas_blk_flush_update
.Lfunc_begin2:
	.loc	2 119 0                 // kernel/block/mas_blk_flush.c:119:0
	.cfi_startproc
// %bb.0:
	//DEBUG_VALUE: mas_blk_flush_update:req <- $x0
	//DEBUG_VALUE: mas_blk_flush_update:req <- $x0
	//DEBUG_VALUE: mas_blk_flush_update:error <- $w1
	//DEBUG_VALUE: mas_blk_flush_update:error <- $w1
	.loc	2 120 6 prologue_end    // kernel/block/mas_blk_flush.c:120:6
	cbnz	w1, .LBB2_2
// %bb.1:
	//DEBUG_VALUE: mas_blk_flush_update:error <- $w1
	//DEBUG_VALUE: mas_blk_flush_update:req <- $x0
.Ltmp39:
	.loc	2 121 3                 // kernel/block/mas_blk_flush.c:121:3
	ldr	x8, [x0, #64]
.Ltmp40:
	//DEBUG_VALUE: __write_once_size:p <- [DW_OP_plus_uconst 1620, DW_OP_stack_value] $x8
	//DEBUG_VALUE: __write_once_size:size <- 4
	//DEBUG_VALUE: __write_once_size:res <- undef
	.loc	140 209 31              // kernel/include/linux/compiler.h:209:31
	str	wzr, [x8, #1620]
.Ltmp41:
.LBB2_2:
	//DEBUG_VALUE: mas_blk_flush_update:error <- $w1
	//DEBUG_VALUE: mas_blk_flush_update:req <- $x0
	.loc	2 122 1                 // kernel/block/mas_blk_flush.c:122:1
	ret
.Ltmp42:
.Lfunc_end2:
	.size	mas_blk_flush_update, .Lfunc_end2-mas_blk_flush_update
	.cfi_endproc
                                        // -- End function
	.section	.text.blk_power_off_flush,"ax",@progbits
	.hidden	blk_power_off_flush     // -- Begin function blk_power_off_flush
	.globl	blk_power_off_flush
	.p2align	2
	.type	blk_power_off_flush,@function
blk_power_off_flush:                    // @blk_power_off_flush
.Lfunc_begin3:
	.loc	2 128 0                 // kernel/block/mas_blk_flush.c:128:0
	.cfi_startproc
// %bb.0:
	//DEBUG_VALUE: blk_power_off_flush:emergency <- $w0
	str	x27, [sp, #-96]!        // 8-byte Folded Spill
	stp	x26, x25, [sp, #16]     // 16-byte Folded Spill
	stp	x24, x23, [sp, #32]     // 16-byte Folded Spill
	stp	x22, x21, [sp, #48]     // 16-byte Folded Spill
	stp	x20, x19, [sp, #64]     // 16-byte Folded Spill
	stp	x29, x30, [sp, #80]     // 16-byte Folded Spill
	add	x29, sp, #80            // =80
	.cfi_def_cfa w29, 16
	.cfi_offset w30, -8
	.cfi_offset w29, -16
	.cfi_offset w19, -24
	.cfi_offset w20, -32
	.cfi_offset w21, -40
	.cfi_offset w22, -48
	.cfi_offset w23, -56
	.cfi_offset w24, -64
	.cfi_offset w25, -72
	.cfi_offset w26, -80
	.cfi_offset w27, -96
	mov	w2, w0
.Ltmp43:
	//DEBUG_VALUE: blk_power_off_flush:blk_lld <- 0
	//DEBUG_VALUE: blk_power_off_flush:q <- 0
	//DEBUG_VALUE: blk_power_off_flush:mas_queue <- 0
	//DEBUG_VALUE: blk_power_off_flush:emergency <- $w2
	.loc	2 134 2 prologue_end    // kernel/block/mas_blk_flush.c:134:2
	adrp	x0, .L.str.2
	adrp	x1, .L__func__.blk_power_off_flush
	add	x0, x0, :lo12:.L.str.2
	add	x1, x1, :lo12:.L__func__.blk_power_off_flush
	//DEBUG_VALUE: blk_power_off_flush:emergency <- $w2
	bl	printk
.Ltmp44:
	.loc	2 135 2                 // kernel/block/mas_blk_flush.c:135:2
	adrp	x0, all_flush_q_lock
	add	x0, x0, :lo12:all_flush_q_lock
	bl	_raw_spin_lock_irqsave
.Ltmp45:
	.loc	2 0 0 is_stmt 0         // kernel/block/mas_blk_flush.c:0:0
	adrp	x26, all_flush_q_list
	add	x26, x26, :lo12:all_flush_q_list
	ldr	x27, [x26]
.Ltmp46:
	//DEBUG_VALUE: blk_power_off_flush:mas_queue <- [DW_OP_constu 128, DW_OP_minus, DW_OP_stack_value] $x27
	.loc	2 135 2                 // kernel/block/mas_blk_flush.c:135:2
	mov	x19, x0
.Ltmp47:
	//DEBUG_VALUE: blk_power_off_flush:flag <- $x19
	//DEBUG_VALUE: spin_unlock_irqrestore:flags <- $x19
	.loc	2 136 2 is_stmt 1       // kernel/block/mas_blk_flush.c:136:2
	cmp	x27, x26
	b.eq	.LBB3_9
.Ltmp48:
// %bb.1:
	//DEBUG_VALUE: spin_unlock_irqrestore:flags <- $x19
	//DEBUG_VALUE: blk_power_off_flush:flag <- $x19
	//DEBUG_VALUE: blk_power_off_flush:mas_queue <- [DW_OP_constu 128, DW_OP_minus, DW_OP_stack_value] $x27
	.loc	2 0 2 is_stmt 0         // kernel/block/mas_blk_flush.c:0:2
	adrp	x20, .L.str.3
	adrp	x21, .L__func__.blk_power_off_flush
	adrp	x22, .L.str.4
	add	x20, x20, :lo12:.L.str.3
	add	x21, x21, :lo12:.L__func__.blk_power_off_flush
	add	x22, x22, :lo12:.L.str.4
.Ltmp49:
.LBB3_2:                                // =>This Inner Loop Header: Depth=1
	//DEBUG_VALUE: blk_power_off_flush:flag <- $x19
	//DEBUG_VALUE: blk_power_off_flush:mas_queue <- [DW_OP_constu 128, DW_OP_minus, DW_OP_stack_value] $x27
	//DEBUG_VALUE: __mptr <- [DW_OP_constu 128, DW_OP_minus, DW_OP_stack_value] $x27
	//DEBUG_VALUE: queue_disk <- 0
	.loc	2 139 19 is_stmt 1      // kernel/block/mas_blk_flush.c:139:19
	ldurb	w8, [x27, #-120]
.Ltmp50:
	.loc	2 139 7 is_stmt 0       // kernel/block/mas_blk_flush.c:139:7
	cbz	w8, .LBB3_8
.Ltmp51:
// %bb.3:                               //   in Loop: Header=BB3_2 Depth=1
	//DEBUG_VALUE: __mptr <- [DW_OP_constu 128, DW_OP_minus, DW_OP_stack_value] $x27
	//DEBUG_VALUE: blk_power_off_flush:flag <- $x19
	//DEBUG_VALUE: blk_power_off_flush:mas_queue <- [DW_OP_constu 128, DW_OP_minus, DW_OP_stack_value] $x27
	.loc	2 141 31 is_stmt 1      // kernel/block/mas_blk_flush.c:141:31
	sub	x23, x27, #1624         // =1624
.Ltmp52:
	//DEBUG_VALUE: blk_power_off_flush:q <- $x23
	.loc	2 143 13                // kernel/block/mas_blk_flush.c:143:13
	mov	x0, x23
	bl	mas_blk_get_lld
.Ltmp53:
	.loc	2 145 15                // kernel/block/mas_blk_flush.c:145:15
	cbz	x0, .LBB3_8
.Ltmp54:
// %bb.4:                               //   in Loop: Header=BB3_2 Depth=1
	//DEBUG_VALUE: blk_power_off_flush:q <- $x23
	//DEBUG_VALUE: blk_power_off_flush:flag <- $x19
	//DEBUG_VALUE: blk_power_off_flush:mas_queue <- [DW_OP_constu 128, DW_OP_minus, DW_OP_stack_value] $x27
	.loc	2 145 27 is_stmt 0      // kernel/block/mas_blk_flush.c:145:27
	ldr	x8, [x0, #56]
.Ltmp55:
	.loc	2 0 0                   // kernel/block/mas_blk_flush.c:0:0
	mov	x24, x0
.Ltmp56:
	//DEBUG_VALUE: blk_power_off_flush:blk_lld <- $x24
	.loc	2 145 7                 // kernel/block/mas_blk_flush.c:145:7
	cbz	x8, .LBB3_8
.Ltmp57:
// %bb.5:                               //   in Loop: Header=BB3_2 Depth=1
	//DEBUG_VALUE: blk_power_off_flush:blk_lld <- $x24
	//DEBUG_VALUE: blk_power_off_flush:q <- $x23
	//DEBUG_VALUE: blk_power_off_flush:flag <- $x19
	//DEBUG_VALUE: blk_power_off_flush:mas_queue <- [DW_OP_constu 128, DW_OP_minus, DW_OP_stack_value] $x27
	.loc	2 0 0                   // kernel/block/mas_blk_flush.c:0:0
	ldur	x9, [x27, #-128]
.Ltmp58:
	//DEBUG_VALUE: queue_disk <- $x9
	.loc	2 146 8 is_stmt 1       // kernel/block/mas_blk_flush.c:146:8
	cbz	x9, .LBB3_7
.Ltmp59:
// %bb.6:                               //   in Loop: Header=BB3_2 Depth=1
	//DEBUG_VALUE: queue_disk <- $x9
	//DEBUG_VALUE: blk_power_off_flush:blk_lld <- $x24
	//DEBUG_VALUE: blk_power_off_flush:q <- $x23
	//DEBUG_VALUE: blk_power_off_flush:flag <- $x19
	//DEBUG_VALUE: blk_power_off_flush:mas_queue <- [DW_OP_constu 128, DW_OP_minus, DW_OP_stack_value] $x27
	.loc	2 147 5                 // kernel/block/mas_blk_flush.c:147:5
	add	x25, x9, #12            // =12
	mov	x0, x20
	mov	x1, x21
	mov	x2, x25
	bl	printk
.Ltmp60:
	.loc	2 149 13                // kernel/block/mas_blk_flush.c:149:13
	ldr	x8, [x24, #56]
	.loc	2 149 4 is_stmt 0       // kernel/block/mas_blk_flush.c:149:4
	mov	x0, x23
	blr	x8
.Ltmp61:
	.loc	2 151 5 is_stmt 1       // kernel/block/mas_blk_flush.c:151:5
	mov	x0, x22
	mov	x1, x21
	mov	x2, x25
	bl	printk
	b	.LBB3_8
.Ltmp62:
.LBB3_7:                                //   in Loop: Header=BB3_2 Depth=1
	//DEBUG_VALUE: queue_disk <- $x9
	//DEBUG_VALUE: blk_power_off_flush:blk_lld <- $x24
	//DEBUG_VALUE: blk_power_off_flush:q <- $x23
	//DEBUG_VALUE: blk_power_off_flush:flag <- $x19
	//DEBUG_VALUE: blk_power_off_flush:mas_queue <- [DW_OP_constu 128, DW_OP_minus, DW_OP_stack_value] $x27
	.loc	2 149 4                 // kernel/block/mas_blk_flush.c:149:4
	mov	x0, x23
	blr	x8
.Ltmp63:
.LBB3_8:                                //   in Loop: Header=BB3_2 Depth=1
	//DEBUG_VALUE: blk_power_off_flush:flag <- $x19
	//DEBUG_VALUE: blk_power_off_flush:mas_queue <- [DW_OP_constu 128, DW_OP_minus, DW_OP_stack_value] $x27
	//DEBUG_VALUE: __mptr <- undef
	.loc	2 0 0 is_stmt 0         // kernel/block/mas_blk_flush.c:0:0
	ldr	x27, [x27]
.Ltmp64:
	//DEBUG_VALUE: blk_power_off_flush:mas_queue <- [DW_OP_constu 128, DW_OP_minus, DW_OP_stack_value] $x27
	.loc	2 136 2 is_stmt 1       // kernel/block/mas_blk_flush.c:136:2
	cmp	x27, x26
	b.ne	.LBB3_2
.Ltmp65:
.LBB3_9:
	//DEBUG_VALUE: blk_power_off_flush:flag <- $x19
	//DEBUG_VALUE: blk_power_off_flush:mas_queue <- [DW_OP_constu 128, DW_OP_minus, DW_OP_stack_value] $x27
	.file	141 "/mnt/disk/jenkins/ci/workspace/chipset_pipeline_release/opensource/component_code/vendor/huawei/extra/build/build_script/kirin_kernel_release/kernel/include/linux/spinlock.h"
	.loc	141 372 2               // kernel/include/linux/spinlock.h:372:2
	adrp	x0, all_flush_q_lock
	add	x0, x0, :lo12:all_flush_q_lock
.Ltmp66:
	//DEBUG_VALUE: spin_unlock_irqrestore:lock <- $x0
	mov	x1, x19
	bl	_raw_spin_unlock_irqrestore
.Ltmp67:
	.loc	2 156 2                 // kernel/block/mas_blk_flush.c:156:2
	adrp	x0, .L.str.5
	adrp	x1, .L__func__.blk_power_off_flush
	add	x0, x0, :lo12:.L.str.5
	add	x1, x1, :lo12:.L__func__.blk_power_off_flush
	bl	printk
	.loc	2 157 1                 // kernel/block/mas_blk_flush.c:157:1
	ldp	x29, x30, [sp, #80]     // 16-byte Folded Reload
	ldp	x20, x19, [sp, #64]     // 16-byte Folded Reload
.Ltmp68:
	ldp	x22, x21, [sp, #48]     // 16-byte Folded Reload
	ldp	x24, x23, [sp, #32]     // 16-byte Folded Reload
	ldp	x26, x25, [sp, #16]     // 16-byte Folded Reload
	ldr	x27, [sp], #96          // 8-byte Folded Reload
.Ltmp69:
	ret
.Ltmp70:
.Lfunc_end3:
	.size	blk_power_off_flush, .Lfunc_end3-blk_power_off_flush
	.cfi_endproc
                                        // -- End function
	.section	.text.mas_blk_flush_list_register,"ax",@progbits
	.hidden	mas_blk_flush_list_register // -- Begin function mas_blk_flush_list_register
	.globl	mas_blk_flush_list_register
	.p2align	2
	.type	mas_blk_flush_list_register,@function
mas_blk_flush_list_register:            // @mas_blk_flush_list_register
.Lfunc_begin4:
	.loc	2 160 0                 // kernel/block/mas_blk_flush.c:160:0
	.cfi_startproc
// %bb.0:
	//DEBUG_VALUE: mas_blk_flush_list_register:lld_list <- $x0
	stp	x20, x19, [sp, #-32]!   // 16-byte Folded Spill
	stp	x29, x30, [sp, #16]     // 16-byte Folded Spill
	add	x29, sp, #16            // =16
	.cfi_def_cfa w29, 16
	.cfi_offset w30, -8
	.cfi_offset w29, -16
	.cfi_offset w19, -24
	.cfi_offset w20, -32
.Ltmp71:
	.loc	2 163 2 prologue_end    // kernel/block/mas_blk_flush.c:163:2
	adrp	x20, all_object_lock
	add	x20, x20, :lo12:all_object_lock
.Ltmp72:
	//DEBUG_VALUE: __write_once_size:p <- undef
	//DEBUG_VALUE: __write_once_size:res <- undef
	.loc	2 0 2 is_stmt 0         // kernel/block/mas_blk_flush.c:0:2
	mov	x19, x0
.Ltmp73:
	//DEBUG_VALUE: mas_blk_flush_list_register:lld_list <- $x19
	.loc	2 163 2                 // kernel/block/mas_blk_flush.c:163:2
	mov	x0, x20
	bl	_raw_spin_lock_irqsave
.Ltmp74:
	.file	142 "/mnt/disk/jenkins/ci/workspace/chipset_pipeline_release/opensource/component_code/vendor/huawei/extra/build/build_script/kirin_kernel_release/kernel/include/linux/list.h"
	.loc	142 79 30 is_stmt 1     // kernel/include/linux/list.h:79:30
	adrp	x8, all_object_list
	add	x8, x8, :lo12:all_object_list
.Ltmp75:
	//DEBUG_VALUE: list_add:head <- $x8
	ldr	x9, [x8]
.Ltmp76:
	.loc	2 163 2                 // kernel/block/mas_blk_flush.c:163:2
	mov	x1, x0
.Ltmp77:
	//DEBUG_VALUE: list_add:new <- $x19
	//DEBUG_VALUE: mas_blk_flush_list_register:flag <- $x1
	.loc	142 79 30               // kernel/include/linux/list.h:79:30
	adrp	x10, all_object_list
.Ltmp78:
	//DEBUG_VALUE: __list_add:new <- $x19
	//DEBUG_VALUE: __list_add:next <- $x9
	//DEBUG_VALUE: __list_add:prev <- $x8
	.loc	141 372 2               // kernel/include/linux/spinlock.h:372:2
	mov	x0, x20
.Ltmp79:
	.loc	142 63 13               // kernel/include/linux/list.h:63:13
	str	x19, [x9, #8]
	.loc	142 64 12               // kernel/include/linux/list.h:64:12
	stp	x9, x8, [x19]
.Ltmp80:
	//DEBUG_VALUE: __write_once_size:size <- 8
	.loc	140 210 31              // kernel/include/linux/compiler.h:210:31
	str	x19, [x10, :lo12:all_object_list]
.Ltmp81:
	//DEBUG_VALUE: spin_unlock_irqrestore:flags <- $x1
	//DEBUG_VALUE: spin_unlock_irqrestore:lock <- $x20
	.loc	141 372 2               // kernel/include/linux/spinlock.h:372:2
	bl	_raw_spin_unlock_irqrestore
.Ltmp82:
	.loc	2 166 1                 // kernel/block/mas_blk_flush.c:166:1
	ldp	x29, x30, [sp, #16]     // 16-byte Folded Reload
	ldp	x20, x19, [sp], #32     // 16-byte Folded Reload
.Ltmp83:
	ret
.Ltmp84:
.Lfunc_end4:
	.size	mas_blk_flush_list_register, .Lfunc_end4-mas_blk_flush_list_register
	.cfi_endproc
                                        // -- End function
	.section	.text.mas_blk_flush_list_unregister,"ax",@progbits
	.hidden	mas_blk_flush_list_unregister // -- Begin function mas_blk_flush_list_unregister
	.globl	mas_blk_flush_list_unregister
	.p2align	2
	.type	mas_blk_flush_list_unregister,@function
mas_blk_flush_list_unregister:          // @mas_blk_flush_list_unregister
.Lfunc_begin5:
	.loc	2 169 0                 // kernel/block/mas_blk_flush.c:169:0
	.cfi_startproc
// %bb.0:
	//DEBUG_VALUE: mas_blk_flush_list_unregister:lld_list <- $x0
	stp	x20, x19, [sp, #-32]!   // 16-byte Folded Spill
	stp	x29, x30, [sp, #16]     // 16-byte Folded Spill
	add	x29, sp, #16            // =16
	.cfi_def_cfa w29, 16
	.cfi_offset w30, -8
	.cfi_offset w29, -16
	.cfi_offset w19, -24
	.cfi_offset w20, -32
.Ltmp85:
	.loc	2 172 2 prologue_end    // kernel/block/mas_blk_flush.c:172:2
	adrp	x20, all_object_lock
	add	x20, x20, :lo12:all_object_lock
	mov	x19, x0
.Ltmp86:
	//DEBUG_VALUE: mas_blk_flush_list_unregister:lld_list <- $x19
	mov	x0, x20
	bl	_raw_spin_lock_irqsave
.Ltmp87:
	.loc	142 120 33              // kernel/include/linux/list.h:120:33
	ldp	x8, x9, [x19]
.Ltmp88:
	//DEBUG_VALUE: __list_del:prev <- $x9
	//DEBUG_VALUE: __list_del:next <- $x8
	.loc	2 172 2                 // kernel/block/mas_blk_flush.c:172:2
	mov	x1, x0
.Ltmp89:
	//DEBUG_VALUE: __list_del_entry:entry <- $x19
	//DEBUG_VALUE: list_del_init:entry <- $x19
	//DEBUG_VALUE: mas_blk_flush_list_unregister:flag <- $x1
	.loc	141 372 2               // kernel/include/linux/spinlock.h:372:2
	mov	x0, x20
.Ltmp90:
	.loc	142 105 13              // kernel/include/linux/list.h:105:13
	str	x9, [x8, #8]
.Ltmp91:
	//DEBUG_VALUE: __write_once_size:p <- $x9
	//DEBUG_VALUE: __write_once_size:size <- 8
	//DEBUG_VALUE: __write_once_size:res <- undef
	.loc	140 210 31              // kernel/include/linux/compiler.h:210:31
	str	x8, [x9]
.Ltmp92:
	//DEBUG_VALUE: __write_once_size:p <- $x19
	//DEBUG_VALUE: __write_once_size:size <- 8
	//DEBUG_VALUE: __write_once_size:res <- undef
	//DEBUG_VALUE: INIT_LIST_HEAD:list <- $x19
	.loc	140 210 31 is_stmt 0    // kernel/include/linux/compiler.h:210:31
	str	x19, [x19]
.Ltmp93:
	.loc	142 29 13 is_stmt 1     // kernel/include/linux/list.h:29:13
	str	x19, [x19, #8]
.Ltmp94:
	//DEBUG_VALUE: spin_unlock_irqrestore:flags <- $x1
	//DEBUG_VALUE: spin_unlock_irqrestore:lock <- $x20
	.loc	141 372 2               // kernel/include/linux/spinlock.h:372:2
	bl	_raw_spin_unlock_irqrestore
.Ltmp95:
	.loc	2 175 1                 // kernel/block/mas_blk_flush.c:175:1
	ldp	x29, x30, [sp, #16]     // 16-byte Folded Reload
	ldp	x20, x19, [sp], #32     // 16-byte Folded Reload
.Ltmp96:
	ret
.Ltmp97:
.Lfunc_end5:
	.size	mas_blk_flush_list_unregister, .Lfunc_end5-mas_blk_flush_list_unregister
	.cfi_endproc
                                        // -- End function
	.section	.text.mas_blk_order_panic_wait_flush,"ax",@progbits
	.hidden	mas_blk_order_panic_wait_flush // -- Begin function mas_blk_order_panic_wait_flush
	.globl	mas_blk_order_panic_wait_flush
	.p2align	2
	.type	mas_blk_order_panic_wait_flush,@function
mas_blk_order_panic_wait_flush:         // @mas_blk_order_panic_wait_flush
.Lfunc_begin6:
	.loc	2 178 0                 // kernel/block/mas_blk_flush.c:178:0
	.cfi_startproc
// %bb.0:
	stp	x26, x25, [sp, #-80]!   // 16-byte Folded Spill
	stp	x24, x23, [sp, #16]     // 16-byte Folded Spill
	stp	x22, x21, [sp, #32]     // 16-byte Folded Spill
	stp	x20, x19, [sp, #48]     // 16-byte Folded Spill
	stp	x29, x30, [sp, #64]     // 16-byte Folded Spill
	add	x29, sp, #64            // =64
	.cfi_def_cfa w29, 16
	.cfi_offset w30, -8
	.cfi_offset w29, -16
	.cfi_offset w19, -24
	.cfi_offset w20, -32
	.cfi_offset w21, -40
	.cfi_offset w22, -48
	.cfi_offset w23, -56
	.cfi_offset w24, -64
	.cfi_offset w25, -72
	.cfi_offset w26, -80
.Ltmp98:
	//DEBUG_VALUE: mas_blk_order_panic_wait_flush:sleep_count <- 200
	//DEBUG_VALUE: mas_blk_order_panic_wait_flush:need_flush <- 0
	//DEBUG_VALUE: mas_blk_order_panic_wait_flush:blk_lld <- 0
	.loc	2 184 2 prologue_end    // kernel/block/mas_blk_flush.c:184:2
	adrp	x19, .L__func__.mas_blk_order_panic_wait_flush
	adrp	x0, .L.str.6
	add	x19, x19, :lo12:.L__func__.mas_blk_order_panic_wait_flush
	add	x0, x0, :lo12:.L.str.6
	mov	x1, x19
	bl	printk
	adrp	x20, all_object_lock
	adrp	x25, all_object_list
	adrp	x21, .L.str.7
	mov	w24, #200
.Ltmp99:
	//DEBUG_VALUE: mas_blk_order_panic_wait_flush:need_flush <- undef
	.loc	2 0 2 is_stmt 0         // kernel/block/mas_blk_flush.c:0:2
	add	x20, x20, :lo12:all_object_lock
	add	x25, x25, :lo12:all_object_list
	add	x21, x21, :lo12:.L.str.7
.LBB6_1:                                // =>This Loop Header: Depth=1
                                        //     Child Loop BB6_3 Depth 2
.Ltmp100:
	//DEBUG_VALUE: mas_blk_order_panic_wait_flush:sleep_count <- $w24
	//DEBUG_VALUE: mas_blk_order_panic_wait_flush:sleep_count <- [DW_OP_constu 1, DW_OP_minus, DW_OP_stack_value] $w24
	.loc	2 186 3 is_stmt 1       // kernel/block/mas_blk_flush.c:186:3
	mov	w0, #35160
	movk	w0, #65, lsl #16
	bl	__const_udelay
.Ltmp101:
	.loc	2 187 3                 // kernel/block/mas_blk_flush.c:187:3
	mov	x0, x20
	bl	_raw_spin_lock_irqsave
.Ltmp102:
	.loc	2 0 0 is_stmt 0         // kernel/block/mas_blk_flush.c:0:0
	ldr	x26, [x25]
.Ltmp103:
	//DEBUG_VALUE: mas_blk_order_panic_wait_flush:blk_lld <- [DW_OP_constu 408, DW_OP_minus, DW_OP_stack_value] $x26
	//DEBUG_VALUE: mas_blk_order_panic_wait_flush:need_flush <- undef
	.loc	2 187 3                 // kernel/block/mas_blk_flush.c:187:3
	mov	x22, x0
.Ltmp104:
	//DEBUG_VALUE: mas_blk_order_panic_wait_flush:flags <- $x22
	//DEBUG_VALUE: spin_unlock_irqrestore:flags <- $x22
	.loc	2 188 3 is_stmt 1       // kernel/block/mas_blk_flush.c:188:3
	cmp	x26, x25
	b.eq	.LBB6_11
.Ltmp105:
// %bb.2:                               //   in Loop: Header=BB6_1 Depth=1
	//DEBUG_VALUE: spin_unlock_irqrestore:flags <- $x22
	//DEBUG_VALUE: mas_blk_order_panic_wait_flush:flags <- $x22
	//DEBUG_VALUE: mas_blk_order_panic_wait_flush:blk_lld <- [DW_OP_constu 408, DW_OP_minus, DW_OP_stack_value] $x26
	//DEBUG_VALUE: mas_blk_order_panic_wait_flush:sleep_count <- $w24
	.loc	2 0 3 is_stmt 0         // kernel/block/mas_blk_flush.c:0:3
	mov	w23, wzr
.Ltmp106:
.LBB6_3:                                //   Parent Loop BB6_1 Depth=1
                                        // =>  This Inner Loop Header: Depth=2
	//DEBUG_VALUE: mas_blk_order_panic_wait_flush:flags <- $x22
	//DEBUG_VALUE: mas_blk_order_panic_wait_flush:blk_lld <- [DW_OP_constu 408, DW_OP_minus, DW_OP_stack_value] $x26
	//DEBUG_VALUE: mas_blk_order_panic_wait_flush:sleep_count <- $w24
	.loc	2 189 17 is_stmt 1      // kernel/block/mas_blk_flush.c:189:17
	sub	x8, x26, #404           // =404
	ldr	w2, [x8]
.Ltmp107:
	.loc	2 189 8 is_stmt 0       // kernel/block/mas_blk_flush.c:189:8
	cmp	w2, #2                  // =2
	b.ne	.LBB6_6
.Ltmp108:
// %bb.4:                               //   in Loop: Header=BB6_3 Depth=2
	//DEBUG_VALUE: mas_blk_order_panic_wait_flush:flags <- $x22
	//DEBUG_VALUE: mas_blk_order_panic_wait_flush:blk_lld <- [DW_OP_constu 408, DW_OP_minus, DW_OP_stack_value] $x26
	//DEBUG_VALUE: mas_blk_order_panic_wait_flush:sleep_count <- $w24
	.loc	2 195 19 is_stmt 1      // kernel/block/mas_blk_flush.c:195:19
	sub	x8, x26, #384           // =384
	ldr	x8, [x8]
	.loc	2 195 28 is_stmt 0      // kernel/block/mas_blk_flush.c:195:28
	tst	x8, #0x80
	cset	w9, eq
.Ltmp109:
	.loc	2 195 8                 // kernel/block/mas_blk_flush.c:195:8
	orr	w9, w23, w9
	tbz	w9, #0, .LBB6_7
.Ltmp110:
// %bb.5:                               //   in Loop: Header=BB6_3 Depth=2
	//DEBUG_VALUE: mas_blk_order_panic_wait_flush:flags <- $x22
	//DEBUG_VALUE: mas_blk_order_panic_wait_flush:blk_lld <- [DW_OP_constu 408, DW_OP_minus, DW_OP_stack_value] $x26
	//DEBUG_VALUE: mas_blk_order_panic_wait_flush:sleep_count <- $w24
	.loc	2 0 8                   // kernel/block/mas_blk_flush.c:0:8
	ubfx	x8, x8, #7, #1
	orr	w23, w23, w8
	b	.LBB6_8
.Ltmp111:
.LBB6_6:                                //   in Loop: Header=BB6_3 Depth=2
	//DEBUG_VALUE: mas_blk_order_panic_wait_flush:flags <- $x22
	//DEBUG_VALUE: mas_blk_order_panic_wait_flush:blk_lld <- [DW_OP_constu 408, DW_OP_minus, DW_OP_stack_value] $x26
	//DEBUG_VALUE: mas_blk_order_panic_wait_flush:sleep_count <- $w24
	.loc	2 190 5 is_stmt 1       // kernel/block/mas_blk_flush.c:190:5
	mov	x0, x21
	mov	x1, x19
	bl	printk
	b	.LBB6_8
.Ltmp112:
.LBB6_7:                                //   in Loop: Header=BB6_3 Depth=2
	//DEBUG_VALUE: mas_blk_order_panic_wait_flush:flags <- $x22
	//DEBUG_VALUE: mas_blk_order_panic_wait_flush:blk_lld <- [DW_OP_constu 408, DW_OP_minus, DW_OP_stack_value] $x26
	//DEBUG_VALUE: mas_blk_order_panic_wait_flush:sleep_count <- $w24
	.loc	2 0 0 is_stmt 0         // kernel/block/mas_blk_flush.c:0:0
	sub	x0, x26, #408           // =408
.Ltmp113:
	.loc	2 198 5 is_stmt 1       // kernel/block/mas_blk_flush.c:198:5
	bl	ufs_order_panic_wait_datasync_handle
	mov	w23, w0
.Ltmp114:
.LBB6_8:                                //   in Loop: Header=BB6_3 Depth=2
	//DEBUG_VALUE: mas_blk_order_panic_wait_flush:flags <- $x22
	//DEBUG_VALUE: mas_blk_order_panic_wait_flush:blk_lld <- [DW_OP_constu 408, DW_OP_minus, DW_OP_stack_value] $x26
	//DEBUG_VALUE: mas_blk_order_panic_wait_flush:sleep_count <- $w24
	//DEBUG_VALUE: mas_blk_order_panic_wait_flush:need_flush <- undef
	//DEBUG_VALUE: __mptr <- undef
	.loc	2 0 0 is_stmt 0         // kernel/block/mas_blk_flush.c:0:0
	ldr	x26, [x26]
.Ltmp115:
	//DEBUG_VALUE: mas_blk_order_panic_wait_flush:blk_lld <- [DW_OP_constu 408, DW_OP_minus, DW_OP_stack_value] $x26
	//DEBUG_VALUE: mas_blk_order_panic_wait_flush:need_flush <- undef
	.loc	2 188 3 is_stmt 1       // kernel/block/mas_blk_flush.c:188:3
	cmp	x26, x25
	b.ne	.LBB6_3
.Ltmp116:
// %bb.9:                               //   in Loop: Header=BB6_1 Depth=1
	//DEBUG_VALUE: mas_blk_order_panic_wait_flush:flags <- $x22
	//DEBUG_VALUE: mas_blk_order_panic_wait_flush:blk_lld <- [DW_OP_constu 408, DW_OP_minus, DW_OP_stack_value] $x26
	//DEBUG_VALUE: mas_blk_order_panic_wait_flush:sleep_count <- $w24
	//DEBUG_VALUE: spin_unlock_irqrestore:lock <- $x20
	.loc	141 372 2               // kernel/include/linux/spinlock.h:372:2
	mov	x0, x20
	mov	x1, x22
	bl	_raw_spin_unlock_irqrestore
.Ltmp117:
	.loc	2 201 7                 // kernel/block/mas_blk_flush.c:201:7
	tbnz	w23, #0, .LBB6_13
.Ltmp118:
// %bb.10:                              //   in Loop: Header=BB6_1 Depth=1
	//DEBUG_VALUE: mas_blk_order_panic_wait_flush:flags <- $x22
	//DEBUG_VALUE: mas_blk_order_panic_wait_flush:blk_lld <- [DW_OP_constu 408, DW_OP_minus, DW_OP_stack_value] $x26
	//DEBUG_VALUE: mas_blk_order_panic_wait_flush:sleep_count <- $w24
	.loc	2 206 14                // kernel/block/mas_blk_flush.c:206:14
	subs	w24, w24, #1            // =1
.Ltmp119:
	//DEBUG_VALUE: mas_blk_order_panic_wait_flush:need_flush <- undef
	.loc	2 0 14 is_stmt 0        // kernel/block/mas_blk_flush.c:0:14
	b.ne	.LBB6_1
	b	.LBB6_12
.Ltmp120:
.LBB6_11:                               //   in Loop: Header=BB6_1 Depth=1
	//DEBUG_VALUE: spin_unlock_irqrestore:flags <- $x22
	//DEBUG_VALUE: mas_blk_order_panic_wait_flush:flags <- $x22
	//DEBUG_VALUE: mas_blk_order_panic_wait_flush:blk_lld <- [DW_OP_constu 408, DW_OP_minus, DW_OP_stack_value] $x26
	//DEBUG_VALUE: mas_blk_order_panic_wait_flush:sleep_count <- $w24
	//DEBUG_VALUE: spin_unlock_irqrestore:lock <- $x20
	.loc	141 372 2 is_stmt 1     // kernel/include/linux/spinlock.h:372:2
	mov	x0, x20
	mov	x1, x22
	bl	_raw_spin_unlock_irqrestore
.Ltmp121:
	.loc	2 206 14                // kernel/block/mas_blk_flush.c:206:14
	subs	w24, w24, #1            // =1
.Ltmp122:
	//DEBUG_VALUE: mas_blk_order_panic_wait_flush:need_flush <- undef
	.loc	2 185 2                 // kernel/block/mas_blk_flush.c:185:2
	b.ne	.LBB6_1
.Ltmp123:
.LBB6_12:
	//DEBUG_VALUE: mas_blk_order_panic_wait_flush:flags <- $x22
	//DEBUG_VALUE: mas_blk_order_panic_wait_flush:blk_lld <- [DW_OP_constu 408, DW_OP_minus, DW_OP_stack_value] $x26
	.loc	2 208 2                 // kernel/block/mas_blk_flush.c:208:2
	orr	w0, wzr, #0x1
	bl	blk_power_off_flush
	.loc	2 209 2                 // kernel/block/mas_blk_flush.c:209:2
	adrp	x0, .L.str.9
	add	x0, x0, :lo12:.L.str.9
	b	.LBB6_14
.Ltmp124:
.LBB6_13:
	//DEBUG_VALUE: mas_blk_order_panic_wait_flush:flags <- $x22
	//DEBUG_VALUE: mas_blk_order_panic_wait_flush:blk_lld <- [DW_OP_constu 408, DW_OP_minus, DW_OP_stack_value] $x26
	//DEBUG_VALUE: mas_blk_order_panic_wait_flush:sleep_count <- $w24
	.loc	2 202 4                 // kernel/block/mas_blk_flush.c:202:4
	orr	w0, wzr, #0x1
	bl	blk_power_off_flush
	.loc	2 203 4                 // kernel/block/mas_blk_flush.c:203:4
	adrp	x0, .L.str.8
	add	x0, x0, :lo12:.L.str.8
.Ltmp125:
.LBB6_14:
	//DEBUG_VALUE: mas_blk_order_panic_wait_flush:flags <- $x22
	//DEBUG_VALUE: mas_blk_order_panic_wait_flush:blk_lld <- [DW_OP_constu 408, DW_OP_minus, DW_OP_stack_value] $x26
	.loc	2 0 0 is_stmt 0         // kernel/block/mas_blk_flush.c:0:0
	adrp	x1, .L__func__.mas_blk_order_panic_wait_flush
	add	x1, x1, :lo12:.L__func__.mas_blk_order_panic_wait_flush
	bl	printk
	.loc	2 210 1 is_stmt 1       // kernel/block/mas_blk_flush.c:210:1
	ldp	x29, x30, [sp, #64]     // 16-byte Folded Reload
	ldp	x20, x19, [sp, #48]     // 16-byte Folded Reload
	ldp	x22, x21, [sp, #32]     // 16-byte Folded Reload
.Ltmp126:
	ldp	x24, x23, [sp, #16]     // 16-byte Folded Reload
	ldp	x26, x25, [sp], #80     // 16-byte Folded Reload
.Ltmp127:
	ret
.Ltmp128:
.Lfunc_end6:
	.size	mas_blk_order_panic_wait_flush, .Lfunc_end6-mas_blk_order_panic_wait_flush
	.cfi_endproc
                                        // -- End function
	.section	.text.mas_blk_panic_flush,"ax",@progbits
	.hidden	mas_blk_panic_flush     // -- Begin function mas_blk_panic_flush
	.globl	mas_blk_panic_flush
	.p2align	2
	.type	mas_blk_panic_flush,@function
mas_blk_panic_flush:                    // @mas_blk_panic_flush
.Lfunc_begin7:
	.loc	2 213 0                 // kernel/block/mas_blk_flush.c:213:0
	.cfi_startproc
// %bb.0:
	stp	x24, x23, [sp, #-64]!   // 16-byte Folded Spill
	stp	x22, x21, [sp, #16]     // 16-byte Folded Spill
	stp	x20, x19, [sp, #32]     // 16-byte Folded Spill
	stp	x29, x30, [sp, #48]     // 16-byte Folded Spill
	add	x29, sp, #48            // =48
	.cfi_def_cfa w29, 16
	.cfi_offset w30, -8
	.cfi_offset w29, -16
	.cfi_offset w19, -24
	.cfi_offset w20, -32
	.cfi_offset w21, -40
	.cfi_offset w22, -48
	.cfi_offset w23, -56
	.cfi_offset w24, -64
.Ltmp129:
	//DEBUG_VALUE: mas_blk_panic_flush:blk_lld <- 0
	//DEBUG_VALUE: mas_blk_panic_flush:order_enable <- 0
	.loc	2 218 2 prologue_end    // kernel/block/mas_blk_flush.c:218:2
	mov	w0, wzr
	bl	blk_power_off_flush
.Ltmp130:
	.loc	2 220 2                 // kernel/block/mas_blk_flush.c:220:2
	adrp	x0, all_object_lock
	add	x0, x0, :lo12:all_object_lock
	bl	_raw_spin_lock_irqsave
.Ltmp131:
	.loc	2 0 0 is_stmt 0         // kernel/block/mas_blk_flush.c:0:0
	adrp	x22, all_object_list
	add	x22, x22, :lo12:all_object_list
	ldr	x23, [x22]
.Ltmp132:
	//DEBUG_VALUE: mas_blk_panic_flush:blk_lld <- [DW_OP_constu 408, DW_OP_minus, DW_OP_stack_value] $x23
	//DEBUG_VALUE: mas_blk_panic_flush:order_enable <- undef
	.loc	2 220 2                 // kernel/block/mas_blk_flush.c:220:2
	mov	x19, x0
.Ltmp133:
	//DEBUG_VALUE: mas_blk_panic_flush:flags <- $x19
	//DEBUG_VALUE: spin_unlock_irqrestore:flags <- $x19
	.loc	2 221 2 is_stmt 1       // kernel/block/mas_blk_flush.c:221:2
	cmp	x23, x22
	b.eq	.LBB7_9
.Ltmp134:
// %bb.1:
	//DEBUG_VALUE: spin_unlock_irqrestore:flags <- $x19
	//DEBUG_VALUE: mas_blk_panic_flush:flags <- $x19
	//DEBUG_VALUE: mas_blk_panic_flush:blk_lld <- [DW_OP_constu 408, DW_OP_minus, DW_OP_stack_value] $x23
	.loc	2 0 2 is_stmt 0         // kernel/block/mas_blk_flush.c:0:2
	adrp	x20, .L.str.7
	adrp	x21, .L__func__.mas_blk_panic_flush
	mov	w24, wzr
	add	x20, x20, :lo12:.L.str.7
	add	x21, x21, :lo12:.L__func__.mas_blk_panic_flush
.Ltmp135:
.LBB7_2:                                // =>This Inner Loop Header: Depth=1
	//DEBUG_VALUE: mas_blk_panic_flush:flags <- $x19
	//DEBUG_VALUE: mas_blk_panic_flush:blk_lld <- [DW_OP_constu 408, DW_OP_minus, DW_OP_stack_value] $x23
	.loc	2 222 16 is_stmt 1      // kernel/block/mas_blk_flush.c:222:16
	sub	x8, x23, #404           // =404
	ldr	w2, [x8]
.Ltmp136:
	.loc	2 222 7 is_stmt 0       // kernel/block/mas_blk_flush.c:222:7
	cmp	w2, #2                  // =2
	b.ne	.LBB7_5
.Ltmp137:
// %bb.3:                               //   in Loop: Header=BB7_2 Depth=1
	//DEBUG_VALUE: mas_blk_panic_flush:flags <- $x19
	//DEBUG_VALUE: mas_blk_panic_flush:blk_lld <- [DW_OP_constu 408, DW_OP_minus, DW_OP_stack_value] $x23
	.loc	2 228 16 is_stmt 1      // kernel/block/mas_blk_flush.c:228:16
	sub	x8, x23, #384           // =384
.Ltmp138:
	.loc	2 228 7 is_stmt 0       // kernel/block/mas_blk_flush.c:228:7
	ldrb	w8, [x8]
	tbz	w8, #7, .LBB7_6
.Ltmp139:
// %bb.4:                               //   in Loop: Header=BB7_2 Depth=1
	//DEBUG_VALUE: mas_blk_panic_flush:flags <- $x19
	//DEBUG_VALUE: mas_blk_panic_flush:blk_lld <- [DW_OP_constu 408, DW_OP_minus, DW_OP_stack_value] $x23
	.loc	2 0 0                   // kernel/block/mas_blk_flush.c:0:0
	sub	x0, x23, #408           // =408
.Ltmp140:
	//DEBUG_VALUE: mas_blk_panic_flush:order_enable <- 1
	.loc	2 230 4 is_stmt 1       // kernel/block/mas_blk_flush.c:230:4
	bl	ufs_order_panic_datasync_handle
	orr	w24, wzr, #0x1
	b	.LBB7_6
.Ltmp141:
.LBB7_5:                                //   in Loop: Header=BB7_2 Depth=1
	//DEBUG_VALUE: mas_blk_panic_flush:flags <- $x19
	//DEBUG_VALUE: mas_blk_panic_flush:blk_lld <- [DW_OP_constu 408, DW_OP_minus, DW_OP_stack_value] $x23
	.loc	2 223 4                 // kernel/block/mas_blk_flush.c:223:4
	mov	x0, x20
	mov	x1, x21
	bl	printk
.Ltmp142:
.LBB7_6:                                //   in Loop: Header=BB7_2 Depth=1
	//DEBUG_VALUE: mas_blk_panic_flush:flags <- $x19
	//DEBUG_VALUE: mas_blk_panic_flush:blk_lld <- [DW_OP_constu 408, DW_OP_minus, DW_OP_stack_value] $x23
	//DEBUG_VALUE: mas_blk_panic_flush:order_enable <- undef
	//DEBUG_VALUE: __mptr <- undef
	.loc	2 0 0 is_stmt 0         // kernel/block/mas_blk_flush.c:0:0
	ldr	x23, [x23]
.Ltmp143:
	//DEBUG_VALUE: mas_blk_panic_flush:blk_lld <- [DW_OP_constu 408, DW_OP_minus, DW_OP_stack_value] $x23
	//DEBUG_VALUE: mas_blk_panic_flush:order_enable <- undef
	.loc	2 221 2 is_stmt 1       // kernel/block/mas_blk_flush.c:221:2
	cmp	x23, x22
	b.ne	.LBB7_2
.Ltmp144:
// %bb.7:
	//DEBUG_VALUE: mas_blk_panic_flush:flags <- $x19
	//DEBUG_VALUE: mas_blk_panic_flush:blk_lld <- [DW_OP_constu 408, DW_OP_minus, DW_OP_stack_value] $x23
	.loc	141 372 2               // kernel/include/linux/spinlock.h:372:2
	adrp	x0, all_object_lock
	add	x0, x0, :lo12:all_object_lock
.Ltmp145:
	//DEBUG_VALUE: spin_unlock_irqrestore:lock <- $x0
	mov	x1, x19
	bl	_raw_spin_unlock_irqrestore
.Ltmp146:
	.loc	2 235 6                 // kernel/block/mas_blk_flush.c:235:6
	tbz	w24, #0, .LBB7_10
.Ltmp147:
// %bb.8:
	//DEBUG_VALUE: mas_blk_panic_flush:flags <- $x19
	//DEBUG_VALUE: mas_blk_panic_flush:blk_lld <- [DW_OP_constu 408, DW_OP_minus, DW_OP_stack_value] $x23
	.loc	2 236 3                 // kernel/block/mas_blk_flush.c:236:3
	bl	mas_blk_order_panic_wait_flush
	b	.LBB7_10
.Ltmp148:
.LBB7_9:
	//DEBUG_VALUE: spin_unlock_irqrestore:flags <- $x19
	//DEBUG_VALUE: mas_blk_panic_flush:flags <- $x19
	//DEBUG_VALUE: mas_blk_panic_flush:blk_lld <- [DW_OP_constu 408, DW_OP_minus, DW_OP_stack_value] $x23
	.loc	141 372 2               // kernel/include/linux/spinlock.h:372:2
	adrp	x0, all_object_lock
	add	x0, x0, :lo12:all_object_lock
.Ltmp149:
	//DEBUG_VALUE: spin_unlock_irqrestore:lock <- $x0
	mov	x1, x19
	bl	_raw_spin_unlock_irqrestore
.Ltmp150:
.LBB7_10:
	//DEBUG_VALUE: mas_blk_panic_flush:flags <- $x19
	//DEBUG_VALUE: mas_blk_panic_flush:blk_lld <- [DW_OP_constu 408, DW_OP_minus, DW_OP_stack_value] $x23
	.loc	2 237 1                 // kernel/block/mas_blk_flush.c:237:1
	ldp	x29, x30, [sp, #48]     // 16-byte Folded Reload
	ldp	x20, x19, [sp, #32]     // 16-byte Folded Reload
.Ltmp151:
	ldp	x22, x21, [sp, #16]     // 16-byte Folded Reload
	ldp	x24, x23, [sp], #64     // 16-byte Folded Reload
.Ltmp152:
	ret
.Ltmp153:
.Lfunc_end7:
	.size	mas_blk_panic_flush, .Lfunc_end7-mas_blk_panic_flush
	.cfi_endproc
                                        // -- End function
	.section	.text.mas_blk_poweroff_flush_notifier_call,"ax",@progbits
	.hidden	mas_blk_poweroff_flush_notifier_call // -- Begin function mas_blk_poweroff_flush_notifier_call
	.globl	mas_blk_poweroff_flush_notifier_call
	.p2align	2
	.type	mas_blk_poweroff_flush_notifier_call,@function
mas_blk_poweroff_flush_notifier_call:   // @mas_blk_poweroff_flush_notifier_call
.Lfunc_begin8:
	.loc	2 267 0                 // kernel/block/mas_blk_flush.c:267:0
	.cfi_startproc
// %bb.0:
	//DEBUG_VALUE: mas_blk_poweroff_flush_notifier_call:powerkey_nb <- $x0
	//DEBUG_VALUE: mas_blk_poweroff_flush_notifier_call:event <- $x1
	//DEBUG_VALUE: mas_blk_poweroff_flush_notifier_call:event <- $x1
	//DEBUG_VALUE: mas_blk_poweroff_flush_notifier_call:data <- $x2
	str	x23, [sp, #-64]!        // 8-byte Folded Spill
	stp	x22, x21, [sp, #16]     // 16-byte Folded Spill
	stp	x20, x19, [sp, #32]     // 16-byte Folded Spill
	stp	x29, x30, [sp, #48]     // 16-byte Folded Spill
	add	x29, sp, #48            // =48
	.cfi_def_cfa w29, 16
	.cfi_offset w30, -8
	.cfi_offset w29, -16
	.cfi_offset w19, -24
	.cfi_offset w20, -32
	.cfi_offset w21, -40
	.cfi_offset w22, -48
	.cfi_offset w23, -64
.Ltmp154:
	.loc	2 268 6 prologue_end    // kernel/block/mas_blk_flush.c:268:6
	cmp	x1, #2                  // =2
	b.eq	.LBB8_3
.Ltmp155:
// %bb.1:
	//DEBUG_VALUE: mas_blk_poweroff_flush_notifier_call:data <- $x2
	//DEBUG_VALUE: mas_blk_poweroff_flush_notifier_call:event <- $x1
	//DEBUG_VALUE: mas_blk_poweroff_flush_notifier_call:powerkey_nb <- $x0
	cmp	x1, #3                  // =3
	b.ne	.LBB8_14
.Ltmp156:
// %bb.2:
	//DEBUG_VALUE: mas_blk_poweroff_flush_notifier_call:data <- $x2
	//DEBUG_VALUE: mas_blk_poweroff_flush_notifier_call:event <- $x1
	//DEBUG_VALUE: mas_blk_poweroff_flush_notifier_call:powerkey_nb <- $x0
	.loc	2 269 3                 // kernel/block/mas_blk_flush.c:269:3
	orr	w0, wzr, #0x1
.Ltmp157:
	bl	blk_power_off_flush
.Ltmp158:
	.loc	2 0 3 is_stmt 0         // kernel/block/mas_blk_flush.c:0:3
	b	.LBB8_14
.LBB8_3:
.Ltmp159:
	//DEBUG_VALUE: mas_blk_poweroff_flush_notifier_call:data <- $x2
	//DEBUG_VALUE: mas_blk_poweroff_flush_notifier_call:event <- $x1
	//DEBUG_VALUE: mas_blk_poweroff_flush_notifier_call:powerkey_nb <- $x0
	//DEBUG_VALUE: mas_blk_order_poweroff_proc:blk_lld <- 0
	//DEBUG_VALUE: mas_blk_order_poweroff_proc:tag_set <- 0
	.loc	2 246 2 is_stmt 1       // kernel/block/mas_blk_flush.c:246:2
	adrp	x0, all_object_lock
.Ltmp160:
	add	x0, x0, :lo12:all_object_lock
	bl	_raw_spin_lock_irqsave
.Ltmp161:
	.loc	2 0 0 is_stmt 0         // kernel/block/mas_blk_flush.c:0:0
	adrp	x22, all_object_list
	add	x22, x22, :lo12:all_object_list
	ldr	x23, [x22]
.Ltmp162:
	//DEBUG_VALUE: mas_blk_order_poweroff_proc:blk_lld <- [DW_OP_constu 408, DW_OP_minus, DW_OP_stack_value] $x23
	.loc	2 246 2                 // kernel/block/mas_blk_flush.c:246:2
	mov	x19, x0
.Ltmp163:
	//DEBUG_VALUE: mas_blk_order_poweroff_proc:flags <- $x19
	//DEBUG_VALUE: spin_unlock_irqrestore:flags <- $x19
	.loc	2 247 2 is_stmt 1       // kernel/block/mas_blk_flush.c:247:2
	cmp	x23, x22
	b.eq	.LBB8_13
.Ltmp164:
// %bb.4:
	//DEBUG_VALUE: spin_unlock_irqrestore:flags <- $x19
	//DEBUG_VALUE: mas_blk_order_poweroff_proc:flags <- $x19
	//DEBUG_VALUE: mas_blk_order_poweroff_proc:blk_lld <- [DW_OP_constu 408, DW_OP_minus, DW_OP_stack_value] $x23
	.loc	2 0 2 is_stmt 0         // kernel/block/mas_blk_flush.c:0:2
	adrp	x20, .L.str.7
	adrp	x21, .L__func__.mas_blk_order_poweroff_proc
	add	x20, x20, :lo12:.L.str.7
	add	x21, x21, :lo12:.L__func__.mas_blk_order_poweroff_proc
.Ltmp165:
.LBB8_5:                                // =>This Inner Loop Header: Depth=1
	//DEBUG_VALUE: mas_blk_order_poweroff_proc:flags <- $x19
	//DEBUG_VALUE: mas_blk_order_poweroff_proc:blk_lld <- [DW_OP_constu 408, DW_OP_minus, DW_OP_stack_value] $x23
	.loc	2 248 16 is_stmt 1      // kernel/block/mas_blk_flush.c:248:16
	sub	x8, x23, #404           // =404
	ldr	w2, [x8]
.Ltmp166:
	.loc	2 248 7 is_stmt 0       // kernel/block/mas_blk_flush.c:248:7
	cmp	w2, #2                  // =2
	b.ne	.LBB8_11
.Ltmp167:
// %bb.6:                               //   in Loop: Header=BB8_5 Depth=1
	//DEBUG_VALUE: mas_blk_order_poweroff_proc:flags <- $x19
	//DEBUG_VALUE: mas_blk_order_poweroff_proc:blk_lld <- [DW_OP_constu 408, DW_OP_minus, DW_OP_stack_value] $x23
	.loc	2 254 18 is_stmt 1      // kernel/block/mas_blk_flush.c:254:18
	sub	x8, x23, #384           // =384
.Ltmp168:
	.loc	2 254 7 is_stmt 0       // kernel/block/mas_blk_flush.c:254:7
	ldrb	w8, [x8]
	tbz	w8, #7, .LBB8_12
.Ltmp169:
// %bb.7:                               //   in Loop: Header=BB8_5 Depth=1
	//DEBUG_VALUE: mas_blk_order_poweroff_proc:flags <- $x19
	//DEBUG_VALUE: mas_blk_order_poweroff_proc:blk_lld <- [DW_OP_constu 408, DW_OP_minus, DW_OP_stack_value] $x23
	.loc	2 256 48 is_stmt 1      // kernel/block/mas_blk_flush.c:256:48
	sub	x8, x23, #400           // =400
	ldr	x8, [x8]
.Ltmp170:
	//DEBUG_VALUE: mas_blk_order_poweroff_proc:tag_set <- $x8
	.loc	2 257 15                // kernel/block/mas_blk_flush.c:257:15
	cbz	x8, .LBB8_12
.Ltmp171:
// %bb.8:                               //   in Loop: Header=BB8_5 Depth=1
	//DEBUG_VALUE: mas_blk_order_poweroff_proc:tag_set <- $x8
	//DEBUG_VALUE: mas_blk_order_poweroff_proc:flags <- $x19
	//DEBUG_VALUE: mas_blk_order_poweroff_proc:blk_lld <- [DW_OP_constu 408, DW_OP_minus, DW_OP_stack_value] $x23
	.loc	2 257 27 is_stmt 0      // kernel/block/mas_blk_flush.c:257:27
	ldr	x8, [x8, #464]
.Ltmp172:
	.loc	2 257 42                // kernel/block/mas_blk_flush.c:257:42
	cbz	x8, .LBB8_12
.Ltmp173:
// %bb.9:                               //   in Loop: Header=BB8_5 Depth=1
	//DEBUG_VALUE: mas_blk_order_poweroff_proc:flags <- $x19
	//DEBUG_VALUE: mas_blk_order_poweroff_proc:blk_lld <- [DW_OP_constu 408, DW_OP_minus, DW_OP_stack_value] $x23
	.loc	2 258 30 is_stmt 1      // kernel/block/mas_blk_flush.c:258:30
	ldr	x8, [x8, #32]
.Ltmp174:
	.loc	2 257 7                 // kernel/block/mas_blk_flush.c:257:7
	cbz	x8, .LBB8_12
.Ltmp175:
// %bb.10:                              //   in Loop: Header=BB8_5 Depth=1
	//DEBUG_VALUE: mas_blk_order_poweroff_proc:flags <- $x19
	//DEBUG_VALUE: mas_blk_order_poweroff_proc:blk_lld <- [DW_OP_constu 408, DW_OP_minus, DW_OP_stack_value] $x23
	.loc	2 0 0 is_stmt 0         // kernel/block/mas_blk_flush.c:0:0
	sub	x0, x23, #408           // =408
.Ltmp176:
	.loc	2 259 4 is_stmt 1       // kernel/block/mas_blk_flush.c:259:4
	blr	x8
	b	.LBB8_12
.Ltmp177:
.LBB8_11:                               //   in Loop: Header=BB8_5 Depth=1
	//DEBUG_VALUE: mas_blk_order_poweroff_proc:flags <- $x19
	//DEBUG_VALUE: mas_blk_order_poweroff_proc:blk_lld <- [DW_OP_constu 408, DW_OP_minus, DW_OP_stack_value] $x23
	.loc	2 249 4                 // kernel/block/mas_blk_flush.c:249:4
	mov	x0, x20
	mov	x1, x21
	bl	printk
.Ltmp178:
.LBB8_12:                               //   in Loop: Header=BB8_5 Depth=1
	//DEBUG_VALUE: mas_blk_order_poweroff_proc:flags <- $x19
	//DEBUG_VALUE: mas_blk_order_poweroff_proc:blk_lld <- [DW_OP_constu 408, DW_OP_minus, DW_OP_stack_value] $x23
	//DEBUG_VALUE: __mptr <- undef
	.loc	2 0 0 is_stmt 0         // kernel/block/mas_blk_flush.c:0:0
	ldr	x23, [x23]
.Ltmp179:
	//DEBUG_VALUE: mas_blk_order_poweroff_proc:blk_lld <- [DW_OP_constu 408, DW_OP_minus, DW_OP_stack_value] $x23
	.loc	2 247 2 is_stmt 1       // kernel/block/mas_blk_flush.c:247:2
	cmp	x23, x22
	b.ne	.LBB8_5
.Ltmp180:
.LBB8_13:
	//DEBUG_VALUE: mas_blk_order_poweroff_proc:flags <- $x19
	//DEBUG_VALUE: mas_blk_order_poweroff_proc:blk_lld <- [DW_OP_constu 408, DW_OP_minus, DW_OP_stack_value] $x23
	.loc	141 372 2               // kernel/include/linux/spinlock.h:372:2
	adrp	x0, all_object_lock
	add	x0, x0, :lo12:all_object_lock
.Ltmp181:
	//DEBUG_VALUE: spin_unlock_irqrestore:lock <- $x0
	mov	x1, x19
	bl	_raw_spin_unlock_irqrestore
.Ltmp182:
.LBB8_14:
	.loc	2 273 2                 // kernel/block/mas_blk_flush.c:273:2
	ldp	x29, x30, [sp, #48]     // 16-byte Folded Reload
	ldp	x20, x19, [sp, #32]     // 16-byte Folded Reload
	ldp	x22, x21, [sp, #16]     // 16-byte Folded Reload
	mov	w0, wzr
	ldr	x23, [sp], #64          // 8-byte Folded Reload
	ret
.Ltmp183:
.Lfunc_end8:
	.size	mas_blk_poweroff_flush_notifier_call, .Lfunc_end8-mas_blk_poweroff_flush_notifier_call
	.cfi_endproc
                                        // -- End function
	.section	.init.text,"ax",@progbits
	.hidden	mas_blk_flush_init      // -- Begin function mas_blk_flush_init
	.globl	mas_blk_flush_init
	.p2align	2
	.type	mas_blk_flush_init,@function
mas_blk_flush_init:                     // @mas_blk_flush_init
.Lfunc_begin9:
	.loc	2 282 0                 // kernel/block/mas_blk_flush.c:282:0
	.cfi_startproc
// %bb.0:
	stp	x29, x30, [sp, #-16]!   // 16-byte Folded Spill
	mov	x29, sp
	.cfi_def_cfa w29, 16
	.cfi_offset w30, -8
	.cfi_offset w29, -16
.Ltmp184:
	.loc	2 283 9 prologue_end    // kernel/block/mas_blk_flush.c:283:9
	adrp	x0, mas_blk_poweroff_flush_nb
	add	x0, x0, :lo12:mas_blk_poweroff_flush_nb
	bl	powerkey_register_notifier
	.loc	2 283 2 is_stmt 0       // kernel/block/mas_blk_flush.c:283:2
	ldp	x29, x30, [sp], #16     // 16-byte Folded Reload
	ret
.Ltmp185:
.Lfunc_end9:
	.size	mas_blk_flush_init, .Lfunc_end9-mas_blk_flush_init
	.cfi_endproc
                                        // -- End function
	.section	.text.mas_blk_flush_reduced_queue_unregister,"ax",@progbits
	.hidden	mas_blk_flush_reduced_queue_unregister // -- Begin function mas_blk_flush_reduced_queue_unregister
	.globl	mas_blk_flush_reduced_queue_unregister
	.p2align	2
	.type	mas_blk_flush_reduced_queue_unregister,@function
mas_blk_flush_reduced_queue_unregister: // @mas_blk_flush_reduced_queue_unregister
.Lfunc_begin10:
	.loc	2 298 0 is_stmt 1       // kernel/block/mas_blk_flush.c:298:0
	.cfi_startproc
// %bb.0:
	//DEBUG_VALUE: mas_blk_flush_reduced_queue_unregister:q <- $x0
	stp	x20, x19, [sp, #-32]!   // 16-byte Folded Spill
	stp	x29, x30, [sp, #16]     // 16-byte Folded Spill
	add	x29, sp, #16            // =16
	.cfi_def_cfa w29, 16
	.cfi_offset w30, -8
	.cfi_offset w29, -16
	.cfi_offset w19, -24
	.cfi_offset w20, -32
.Ltmp186:
	//DEBUG_VALUE: mas_blk_flush_reduced_queue_unregister:mas_queue <- [DW_OP_plus_uconst 1496, DW_OP_stack_value] $x0
	//DEBUG_VALUE: mas_blk_flush_reduced_queue_unregister:flush_queue_node <- [DW_OP_plus_uconst 1624, DW_OP_stack_value] $x0
	.loc	2 303 17 prologue_end   // kernel/block/mas_blk_flush.c:303:17
	ldr	w8, [x0, #1640]
.Ltmp187:
	.loc	2 303 6 is_stmt 0       // kernel/block/mas_blk_flush.c:303:6
	cbz	w8, .LBB10_4
.Ltmp188:
// %bb.1:
	//DEBUG_VALUE: mas_blk_flush_reduced_queue_unregister:flush_queue_node <- [DW_OP_plus_uconst 1624, DW_OP_stack_value] $x0
	//DEBUG_VALUE: mas_blk_flush_reduced_queue_unregister:mas_queue <- [DW_OP_plus_uconst 1496, DW_OP_stack_value] $x0
	//DEBUG_VALUE: mas_blk_flush_reduced_queue_unregister:q <- $x0
	.loc	2 304 26 is_stmt 1      // kernel/block/mas_blk_flush.c:304:26
	ldr	x8, [x0, #1624]
	mov	x19, x0
.Ltmp189:
	//DEBUG_VALUE: mas_blk_flush_reduced_queue_unregister:q <- $x19
	//DEBUG_VALUE: mas_blk_flush_reduced_queue_unregister:mas_queue <- [DW_OP_plus_uconst 1496, DW_OP_stack_value] $x19
	//DEBUG_VALUE: mas_blk_flush_reduced_queue_unregister:flush_queue_node <- [DW_OP_plus_uconst 1624, DW_OP_stack_value] $x19
	//DEBUG_VALUE: mas_blk_flush_reduced_queue_unregister:flush_queue_node <- [DW_OP_plus_uconst 1624, DW_OP_stack_value] $x19
	.loc	2 304 31 is_stmt 0      // kernel/block/mas_blk_flush.c:304:31
	cbz	x8, .LBB10_4
.Ltmp190:
// %bb.2:
	//DEBUG_VALUE: mas_blk_flush_reduced_queue_unregister:flush_queue_node <- [DW_OP_plus_uconst 1624, DW_OP_stack_value] $x19
	//DEBUG_VALUE: mas_blk_flush_reduced_queue_unregister:mas_queue <- [DW_OP_plus_uconst 1496, DW_OP_stack_value] $x19
	//DEBUG_VALUE: mas_blk_flush_reduced_queue_unregister:q <- $x19
	.loc	2 304 53                // kernel/block/mas_blk_flush.c:304:53
	ldr	x8, [x19, #1632]
.Ltmp191:
	.loc	2 304 7                 // kernel/block/mas_blk_flush.c:304:7
	cbz	x8, .LBB10_4
.Ltmp192:
// %bb.3:
	//DEBUG_VALUE: mas_blk_flush_reduced_queue_unregister:flush_queue_node <- [DW_OP_plus_uconst 1624, DW_OP_stack_value] $x19
	//DEBUG_VALUE: mas_blk_flush_reduced_queue_unregister:mas_queue <- [DW_OP_plus_uconst 1496, DW_OP_stack_value] $x19
	//DEBUG_VALUE: mas_blk_flush_reduced_queue_unregister:q <- $x19
	.loc	2 308 3 is_stmt 1       // kernel/block/mas_blk_flush.c:308:3
	adrp	x20, all_flush_q_lock
	add	x20, x20, :lo12:all_flush_q_lock
	mov	x0, x20
	bl	_raw_spin_lock_irqsave
.Ltmp193:
	.loc	142 120 20              // kernel/include/linux/list.h:120:20
	ldr	x8, [x19, #1632]
	.loc	142 120 33 is_stmt 0    // kernel/include/linux/list.h:120:33
	ldr	x9, [x19, #1624]
	mov	x10, #256
	movk	x10, #57005, lsl #48
.Ltmp194:
	.loc	2 308 3 is_stmt 1       // kernel/block/mas_blk_flush.c:308:3
	mov	x1, x0
.Ltmp195:
	//DEBUG_VALUE: __list_del_entry:entry <- [DW_OP_plus_uconst 1624, DW_OP_stack_value] $x19
	//DEBUG_VALUE: list_del:entry <- [DW_OP_plus_uconst 1624, DW_OP_stack_value] $x19
	//DEBUG_VALUE: mas_blk_flush_reduced_queue_unregister:flag <- $x1
	.loc	142 127 14              // kernel/include/linux/list.h:127:14
	add	x11, x10, #256          // =256
.Ltmp196:
	//DEBUG_VALUE: __list_del:next <- $x9
	//DEBUG_VALUE: __list_del:prev <- $x8
	.loc	141 372 2               // kernel/include/linux/spinlock.h:372:2
	mov	x0, x20
.Ltmp197:
	.loc	142 105 13              // kernel/include/linux/list.h:105:13
	str	x8, [x9, #8]
.Ltmp198:
	//DEBUG_VALUE: __write_once_size:p <- $x8
	//DEBUG_VALUE: __write_once_size:size <- 8
	//DEBUG_VALUE: __write_once_size:res <- undef
	//DEBUG_VALUE: __list_del_entry:entry <- [DW_OP_plus_uconst 1624, DW_OP_stack_value] $x19
	.loc	140 210 31              // kernel/include/linux/compiler.h:210:31
	str	x9, [x8]
.Ltmp199:
	.loc	142 126 14              // kernel/include/linux/list.h:126:14
	str	x10, [x19, #1624]
	.loc	142 127 14              // kernel/include/linux/list.h:127:14
	str	x11, [x19, #1632]
.Ltmp200:
	//DEBUG_VALUE: spin_unlock_irqrestore:flags <- $x1
	//DEBUG_VALUE: spin_unlock_irqrestore:lock <- $x20
	.loc	141 372 2               // kernel/include/linux/spinlock.h:372:2
	bl	_raw_spin_unlock_irqrestore
.Ltmp201:
.LBB10_4:
	.loc	2 312 1                 // kernel/block/mas_blk_flush.c:312:1
	ldp	x29, x30, [sp, #16]     // 16-byte Folded Reload
	ldp	x20, x19, [sp], #32     // 16-byte Folded Reload
	ret
.Ltmp202:
.Lfunc_end10:
	.size	mas_blk_flush_reduced_queue_unregister, .Lfunc_end10-mas_blk_flush_reduced_queue_unregister
	.cfi_endproc
                                        // -- End function
	.section	.text.blk_mq_tagset_direct_flush_register,"ax",@progbits
	.hidden	blk_mq_tagset_direct_flush_register // -- Begin function blk_mq_tagset_direct_flush_register
	.globl	blk_mq_tagset_direct_flush_register
	.p2align	2
	.type	blk_mq_tagset_direct_flush_register,@function
blk_mq_tagset_direct_flush_register:    // @blk_mq_tagset_direct_flush_register
.Lfunc_begin11:
	.loc	2 320 0                 // kernel/block/mas_blk_flush.c:320:0
	.cfi_startproc
// %bb.0:
	//DEBUG_VALUE: blk_mq_tagset_direct_flush_register:tag_set <- $x0
	//DEBUG_VALUE: blk_mq_tagset_direct_flush_register:tag_set <- $x0
	//DEBUG_VALUE: blk_mq_tagset_direct_flush_register:func <- $x1
	//DEBUG_VALUE: blk_mq_tagset_direct_flush_register:func <- $x1
	.loc	2 321 6 prologue_end    // kernel/block/mas_blk_flush.c:321:6
	cbz	x0, .LBB11_2
.Ltmp203:
// %bb.1:
	//DEBUG_VALUE: blk_mq_tagset_direct_flush_register:func <- $x1
	//DEBUG_VALUE: blk_mq_tagset_direct_flush_register:tag_set <- $x0
	.loc	2 326 29                // kernel/block/mas_blk_flush.c:326:29
	str	x1, [x0, #72]
	.loc	2 327 1                 // kernel/block/mas_blk_flush.c:327:1
	ret
.Ltmp204:
.LBB11_2:
	//DEBUG_VALUE: blk_mq_tagset_direct_flush_register:func <- $x1
	//DEBUG_VALUE: blk_mq_tagset_direct_flush_register:tag_set <- $x0
	stp	x29, x30, [sp, #-16]!   // 16-byte Folded Spill
	mov	x29, sp
	.cfi_def_cfa w29, 16
	.cfi_offset w30, -8
	.cfi_offset w29, -16
.Ltmp205:
	.loc	2 322 3                 // kernel/block/mas_blk_flush.c:322:3
	adrp	x0, .L.str.11
.Ltmp206:
	adrp	x1, .L__func__.blk_mq_tagset_direct_flush_register
.Ltmp207:
	add	x0, x0, :lo12:.L.str.11
	add	x1, x1, :lo12:.L__func__.blk_mq_tagset_direct_flush_register
	bl	printk
	.loc	2 323 3                 // kernel/block/mas_blk_flush.c:323:3
	ldp	x29, x30, [sp], #16     // 16-byte Folded Reload
.Ltmp208:
	.loc	2 327 1                 // kernel/block/mas_blk_flush.c:327:1
	ret
.Ltmp209:
.Lfunc_end11:
	.size	blk_mq_tagset_direct_flush_register, .Lfunc_end11-blk_mq_tagset_direct_flush_register
	.cfi_endproc
                                        // -- End function
	.section	.text.mas_blk_queue_async_flush_init,"ax",@progbits
	.hidden	mas_blk_queue_async_flush_init // -- Begin function mas_blk_queue_async_flush_init
	.globl	mas_blk_queue_async_flush_init
	.p2align	2
	.type	mas_blk_queue_async_flush_init,@function
mas_blk_queue_async_flush_init:         // @mas_blk_queue_async_flush_init
.Lfunc_begin12:
	.loc	2 330 0                 // kernel/block/mas_blk_flush.c:330:0
	.cfi_startproc
// %bb.0:
	//DEBUG_VALUE: mas_blk_queue_async_flush_init:q <- $x0
	stp	x22, x21, [sp, #-48]!   // 16-byte Folded Spill
	stp	x20, x19, [sp, #16]     // 16-byte Folded Spill
	stp	x29, x30, [sp, #32]     // 16-byte Folded Spill
	add	x29, sp, #32            // =32
	.cfi_def_cfa w29, 16
	.cfi_offset w30, -8
	.cfi_offset w29, -16
	.cfi_offset w19, -24
	.cfi_offset w20, -32
	.cfi_offset w21, -40
	.cfi_offset w22, -48
	mov	x19, x0
.Ltmp210:
	//DEBUG_VALUE: mas_blk_queue_async_flush_init:q <- $x19
	.loc	2 331 32 prologue_end   // kernel/block/mas_blk_flush.c:331:32
	bl	mas_blk_get_lld
.Ltmp211:
	//DEBUG_VALUE: mas_blk_queue_async_flush_init:mas_queue <- [DW_OP_plus_uconst 1496, DW_OP_stack_value] $x19
	.loc	2 335 6                 // kernel/block/mas_blk_flush.c:335:6
	ldrb	w8, [x0, #24]
	tbz	w8, #2, .LBB12_10
.Ltmp212:
// %bb.1:
	//DEBUG_VALUE: mas_blk_queue_async_flush_init:mas_queue <- [DW_OP_plus_uconst 1496, DW_OP_stack_value] $x19
	//DEBUG_VALUE: mas_blk_queue_async_flush_init:q <- $x19
	.loc	2 338 7                 // kernel/block/mas_blk_flush.c:338:7
	adrp	x21, blk_async_flush_workqueue
	ldr	x8, [x21, :lo12:blk_async_flush_workqueue]
.Ltmp213:
	.loc	2 0 0 is_stmt 0         // kernel/block/mas_blk_flush.c:0:0
	mov	x20, x0
.Ltmp214:
	//DEBUG_VALUE: mas_blk_queue_async_flush_init:blk_lld <- $x20
	.loc	2 338 6                 // kernel/block/mas_blk_flush.c:338:6
	cbnz	x8, .LBB12_3
.Ltmp215:
// %bb.2:
	//DEBUG_VALUE: mas_blk_queue_async_flush_init:blk_lld <- $x20
	//DEBUG_VALUE: mas_blk_queue_async_flush_init:mas_queue <- [DW_OP_plus_uconst 1496, DW_OP_stack_value] $x19
	//DEBUG_VALUE: mas_blk_queue_async_flush_init:q <- $x19
	.loc	2 340 4 is_stmt 1       // kernel/block/mas_blk_flush.c:340:4
	adrp	x0, .L.str.12
	add	x0, x0, :lo12:.L.str.12
	orr	w1, wzr, #0x2
	mov	w2, wzr
	mov	x3, xzr
	mov	x4, xzr
	bl	__alloc_workqueue_key
	.loc	2 339 29                // kernel/block/mas_blk_flush.c:339:29
	str	x0, [x21, :lo12:blk_async_flush_workqueue]
.Ltmp216:
	.loc	2 342 6                 // kernel/block/mas_blk_flush.c:342:6
	cbz	x0, .LBB12_11
.Ltmp217:
.LBB12_3:
	//DEBUG_VALUE: mas_blk_queue_async_flush_init:blk_lld <- $x20
	//DEBUG_VALUE: mas_blk_queue_async_flush_init:mas_queue <- [DW_OP_plus_uconst 1496, DW_OP_stack_value] $x19
	//DEBUG_VALUE: mas_blk_queue_async_flush_init:q <- $x19
	.loc	140 209 31              // kernel/include/linux/compiler.h:209:31
	str	wzr, [x19, #1620]
.Ltmp218:
	.loc	2 348 25                // kernel/block/mas_blk_flush.c:348:25
	ldr	x8, [x19, #1624]
.Ltmp219:
	.loc	2 0 0 is_stmt 0         // kernel/block/mas_blk_flush.c:0:0
	add	x21, x19, #1624         // =1624
.Ltmp220:
	//DEBUG_VALUE: __write_once_size:size <- 4
	//DEBUG_VALUE: __write_once_size:res <- undef
	//DEBUG_VALUE: __write_once_size:p <- [DW_OP_plus_uconst 1620, DW_OP_stack_value] $x19
	//DEBUG_VALUE: mas_blk_queue_async_flush_init:flush_queue_node <- $x21
	//DEBUG_VALUE: INIT_LIST_HEAD:list <- $x21
	//DEBUG_VALUE: __write_once_size:p <- $x21
	//DEBUG_VALUE: list_empty:head <- $x21
	//DEBUG_VALUE: list_add:new <- $x21
	//DEBUG_VALUE: __list_add:new <- $x21
	.loc	2 348 30                // kernel/block/mas_blk_flush.c:348:30
	cbnz	x8, .LBB12_6
.Ltmp221:
// %bb.4:
	//DEBUG_VALUE: mas_blk_queue_async_flush_init:flush_queue_node <- $x21
	//DEBUG_VALUE: mas_blk_queue_async_flush_init:blk_lld <- $x20
	//DEBUG_VALUE: mas_blk_queue_async_flush_init:mas_queue <- [DW_OP_plus_uconst 1496, DW_OP_stack_value] $x19
	//DEBUG_VALUE: mas_blk_queue_async_flush_init:q <- $x19
	.loc	2 348 52                // kernel/block/mas_blk_flush.c:348:52
	ldr	x8, [x19, #1632]
.Ltmp222:
	.loc	2 348 6                 // kernel/block/mas_blk_flush.c:348:6
	cbnz	x8, .LBB12_6
.Ltmp223:
// %bb.5:
	//DEBUG_VALUE: mas_blk_queue_async_flush_init:flush_queue_node <- $x21
	//DEBUG_VALUE: mas_blk_queue_async_flush_init:blk_lld <- $x20
	//DEBUG_VALUE: mas_blk_queue_async_flush_init:mas_queue <- [DW_OP_plus_uconst 1496, DW_OP_stack_value] $x19
	//DEBUG_VALUE: mas_blk_queue_async_flush_init:q <- $x19
	//DEBUG_VALUE: __write_once_size:res <- undef
	//DEBUG_VALUE: __write_once_size:size <- 8
	.loc	140 210 31 is_stmt 1    // kernel/include/linux/compiler.h:210:31
	str	x21, [x19, #1624]
.Ltmp224:
	.loc	142 29 13               // kernel/include/linux/list.h:29:13
	str	x21, [x19, #1632]
.Ltmp225:
.LBB12_6:
	//DEBUG_VALUE: mas_blk_queue_async_flush_init:flush_queue_node <- $x21
	//DEBUG_VALUE: mas_blk_queue_async_flush_init:blk_lld <- $x20
	//DEBUG_VALUE: mas_blk_queue_async_flush_init:mas_queue <- [DW_OP_plus_uconst 1496, DW_OP_stack_value] $x19
	//DEBUG_VALUE: mas_blk_queue_async_flush_init:q <- $x19
	.loc	2 351 2                 // kernel/block/mas_blk_flush.c:351:2
	adrp	x10, __cfi_mas_blk_flush_work_fn
	mov	x8, #68719476704
	add	x9, x19, #1528          // =1528
.Ltmp226:
	//DEBUG_VALUE: __write_once_size:res <- undef
	add	x10, x10, :lo12:__cfi_mas_blk_flush_work_fn
.Ltmp227:
	.loc	2 351 2 is_stmt 0       // kernel/block/mas_blk_flush.c:351:2
	add	x0, x19, #1552          // =1552
	orr	w1, wzr, #0x200000
	mov	x2, xzr
	mov	x3, xzr
.Ltmp228:
	.loc	2 351 2                 // kernel/block/mas_blk_flush.c:351:2
	add	x22, x19, #1520         // =1520
	str	x8, [x19, #1520]
.Ltmp229:
	//DEBUG_VALUE: __write_once_size:p <- $x9
	//DEBUG_VALUE: __write_once_size:size <- 8
	//DEBUG_VALUE: INIT_LIST_HEAD:list <- $x9
	.loc	140 210 31 is_stmt 1    // kernel/include/linux/compiler.h:210:31
	str	x9, [x19, #1528]
.Ltmp230:
	.loc	142 29 13               // kernel/include/linux/list.h:29:13
	str	x9, [x19, #1536]
.Ltmp231:
	.loc	2 351 2                 // kernel/block/mas_blk_flush.c:351:2
	str	x10, [x19, #1544]
.Ltmp232:
	.loc	2 351 2 is_stmt 0       // kernel/block/mas_blk_flush.c:351:2
	bl	init_timer_key
.Ltmp233:
	adrp	x8, delayed_work_timer_fn
	add	x8, x8, :lo12:delayed_work_timer_fn
	str	x8, [x19, #1576]
	str	x22, [x19, #1584]
.Ltmp234:
	.loc	2 353 15 is_stmt 1      // kernel/block/mas_blk_flush.c:353:15
	ldr	x8, [x20, #56]
	.loc	2 353 24 is_stmt 0      // kernel/block/mas_blk_flush.c:353:24
	cbz	x8, .LBB12_9
.Ltmp235:
// %bb.7:
	//DEBUG_VALUE: mas_blk_queue_async_flush_init:flush_queue_node <- $x21
	//DEBUG_VALUE: mas_blk_queue_async_flush_init:blk_lld <- $x20
	//DEBUG_VALUE: mas_blk_queue_async_flush_init:mas_queue <- [DW_OP_plus_uconst 1496, DW_OP_stack_value] $x19
	//DEBUG_VALUE: mas_blk_queue_async_flush_init:q <- $x19
	//DEBUG_VALUE: __read_once_size:res <- undef
	//DEBUG_VALUE: __read_once_size:size <- 8
	//DEBUG_VALUE: __read_once_size:p <- $x21
	.loc	140 183 2 is_stmt 1     // kernel/include/linux/compiler.h:183:2
	ldr	x8, [x21]
.Ltmp236:
	.loc	2 353 6                 // kernel/block/mas_blk_flush.c:353:6
	cmp	x21, x8
	b.ne	.LBB12_9
.Ltmp237:
// %bb.8:
	//DEBUG_VALUE: mas_blk_queue_async_flush_init:flush_queue_node <- $x21
	//DEBUG_VALUE: mas_blk_queue_async_flush_init:blk_lld <- $x20
	//DEBUG_VALUE: mas_blk_queue_async_flush_init:mas_queue <- [DW_OP_plus_uconst 1496, DW_OP_stack_value] $x19
	//DEBUG_VALUE: mas_blk_queue_async_flush_init:q <- $x19
	//DEBUG_VALUE: mas_blk_flush_reduced_queue_register:q <- $x19
	.loc	2 292 2                 // kernel/block/mas_blk_flush.c:292:2
	adrp	x20, all_flush_q_lock
.Ltmp238:
	add	x20, x20, :lo12:all_flush_q_lock
.Ltmp239:
	//DEBUG_VALUE: __write_once_size:p <- undef
	//DEBUG_VALUE: __write_once_size:res <- undef
	mov	x0, x20
	bl	_raw_spin_lock_irqsave
.Ltmp240:
	.loc	142 79 30               // kernel/include/linux/list.h:79:30
	adrp	x8, all_flush_q_list
	add	x8, x8, :lo12:all_flush_q_list
.Ltmp241:
	//DEBUG_VALUE: list_add:head <- $x8
	ldr	x9, [x8]
.Ltmp242:
	.loc	2 292 2                 // kernel/block/mas_blk_flush.c:292:2
	mov	x1, x0
.Ltmp243:
	//DEBUG_VALUE: mas_blk_flush_reduced_queue_register:flag <- $x1
	.loc	142 79 30               // kernel/include/linux/list.h:79:30
	adrp	x10, all_flush_q_list
.Ltmp244:
	//DEBUG_VALUE: __list_add:next <- $x9
	//DEBUG_VALUE: __list_add:prev <- $x8
	.loc	141 372 2               // kernel/include/linux/spinlock.h:372:2
	mov	x0, x20
.Ltmp245:
	.loc	142 63 13               // kernel/include/linux/list.h:63:13
	str	x21, [x9, #8]
	.loc	142 64 12               // kernel/include/linux/list.h:64:12
	str	x9, [x19, #1624]
	.loc	142 65 12               // kernel/include/linux/list.h:65:12
	str	x8, [x19, #1632]
.Ltmp246:
	//DEBUG_VALUE: __write_once_size:size <- 8
	.loc	140 210 31              // kernel/include/linux/compiler.h:210:31
	str	x21, [x10, :lo12:all_flush_q_list]
.Ltmp247:
	//DEBUG_VALUE: spin_unlock_irqrestore:flags <- $x1
	//DEBUG_VALUE: spin_unlock_irqrestore:lock <- $x20
	.loc	141 372 2               // kernel/include/linux/spinlock.h:372:2
	bl	_raw_spin_unlock_irqrestore
.Ltmp248:
.LBB12_9:
	//DEBUG_VALUE: mas_blk_queue_async_flush_init:flush_queue_node <- $x21
	//DEBUG_VALUE: mas_blk_queue_async_flush_init:mas_queue <- [DW_OP_plus_uconst 1496, DW_OP_stack_value] $x19
	//DEBUG_VALUE: mas_blk_queue_async_flush_init:q <- $x19
	.loc	141 0 2 is_stmt 0       // kernel/include/linux/spinlock.h:0:2
	orr	w8, wzr, #0x1
	.loc	2 356 28 is_stmt 1      // kernel/block/mas_blk_flush.c:356:28
	str	w8, [x19, #1640]
.Ltmp249:
.LBB12_10:
	//DEBUG_VALUE: mas_blk_queue_async_flush_init:mas_queue <- [DW_OP_plus_uconst 1496, DW_OP_stack_value] $x19
	//DEBUG_VALUE: mas_blk_queue_async_flush_init:q <- $x19
	.loc	2 357 1                 // kernel/block/mas_blk_flush.c:357:1
	ldp	x29, x30, [sp, #32]     // 16-byte Folded Reload
	ldp	x20, x19, [sp, #16]     // 16-byte Folded Reload
.Ltmp250:
	ldp	x22, x21, [sp], #48     // 16-byte Folded Reload
	ret
.LBB12_11:
.Ltmp251:
	//DEBUG_VALUE: mas_blk_queue_async_flush_init:blk_lld <- $x20
	//DEBUG_VALUE: mas_blk_queue_async_flush_init:mas_queue <- [DW_OP_plus_uconst 1496, DW_OP_stack_value] $x19
	//DEBUG_VALUE: mas_blk_queue_async_flush_init:q <- $x19
	.loc	2 343 3                 // kernel/block/mas_blk_flush.c:343:3
	adrp	x0, .L.str.13
	adrp	x1, .L__func__.mas_blk_queue_async_flush_init
	add	x0, x0, :lo12:.L.str.13
	add	x1, x1, :lo12:.L__func__.mas_blk_queue_async_flush_init
	bl	printk
	b	.LBB12_10
.Ltmp252:
.Lfunc_end12:
	.size	mas_blk_queue_async_flush_init, .Lfunc_end12-mas_blk_queue_async_flush_init
	.cfi_endproc
                                        // -- End function
	.section	.text.blk_flush_set_async,"ax",@progbits
	.hidden	blk_flush_set_async     // -- Begin function blk_flush_set_async
	.globl	blk_flush_set_async
	.p2align	2
	.type	blk_flush_set_async,@function
blk_flush_set_async:                    // @blk_flush_set_async
.Lfunc_begin13:
	.loc	2 363 0                 // kernel/block/mas_blk_flush.c:363:0
	.cfi_startproc
// %bb.0:
	//DEBUG_VALUE: blk_flush_set_async:bio <- $x0
	//DEBUG_VALUE: blk_flush_set_async:bio <- $x0
	.loc	2 364 6 prologue_end    // kernel/block/mas_blk_flush.c:364:6
	cbz	x0, .LBB13_2
// %bb.1:
	//DEBUG_VALUE: blk_flush_set_async:bio <- $x0
	.loc	2 0 6 is_stmt 0         // kernel/block/mas_blk_flush.c:0:6
	orr	w8, wzr, #0x1
.Ltmp253:
	.loc	2 365 31 is_stmt 1      // kernel/block/mas_blk_flush.c:365:31
	strb	w8, [x0, #154]
.Ltmp254:
.LBB13_2:
	//DEBUG_VALUE: blk_flush_set_async:bio <- $x0
	.loc	2 366 1                 // kernel/block/mas_blk_flush.c:366:1
	ret
.Ltmp255:
.Lfunc_end13:
	.size	blk_flush_set_async, .Lfunc_end13-blk_flush_set_async
	.cfi_endproc
                                        // -- End function
	.section	.text.blk_queue_direct_flush_register,"ax",@progbits
	.hidden	blk_queue_direct_flush_register // -- Begin function blk_queue_direct_flush_register
	.globl	blk_queue_direct_flush_register
	.p2align	2
	.type	blk_queue_direct_flush_register,@function
blk_queue_direct_flush_register:        // @blk_queue_direct_flush_register
.Lfunc_begin14:
	.loc	2 375 0                 // kernel/block/mas_blk_flush.c:375:0
	.cfi_startproc
// %bb.0:
	//DEBUG_VALUE: blk_queue_direct_flush_register:q <- $x0
	//DEBUG_VALUE: blk_queue_direct_flush_register:func <- $x1
	str	x21, [sp, #-48]!        // 8-byte Folded Spill
	stp	x20, x19, [sp, #16]     // 16-byte Folded Spill
	stp	x29, x30, [sp, #32]     // 16-byte Folded Spill
	add	x29, sp, #32            // =32
	.cfi_def_cfa w29, 16
	.cfi_offset w30, -8
	.cfi_offset w29, -16
	.cfi_offset w19, -24
	.cfi_offset w20, -32
	.cfi_offset w21, -48
.Ltmp256:
	//DEBUG_VALUE: blk_queue_direct_flush_register:flush_queue_node <- 0
	//DEBUG_VALUE: blk_queue_direct_flush_register:blk_lld <- 0
	.loc	2 379 6 prologue_end    // kernel/block/mas_blk_flush.c:379:6
	cbz	x0, .LBB14_6
.Ltmp257:
// %bb.1:
	//DEBUG_VALUE: blk_queue_direct_flush_register:func <- $x1
	//DEBUG_VALUE: blk_queue_direct_flush_register:q <- $x0
	.loc	2 0 6 is_stmt 0         // kernel/block/mas_blk_flush.c:0:6
	mov	x20, x1
.Ltmp258:
	//DEBUG_VALUE: blk_queue_direct_flush_register:func <- $x20
	mov	x19, x0
.Ltmp259:
	//DEBUG_VALUE: blk_queue_direct_flush_register:q <- $x19
	.loc	2 384 12 is_stmt 1      // kernel/block/mas_blk_flush.c:384:12
	bl	mas_blk_get_lld
.Ltmp260:
	//DEBUG_VALUE: blk_queue_direct_flush_register:blk_lld <- $x0
	.loc	2 386 25                // kernel/block/mas_blk_flush.c:386:25
	ldr	x8, [x19, #1624]
.Ltmp261:
	.loc	2 385 35                // kernel/block/mas_blk_flush.c:385:35
	add	x21, x19, #1624         // =1624
.Ltmp262:
	//DEBUG_VALUE: INIT_LIST_HEAD:list <- $x21
	//DEBUG_VALUE: __write_once_size:p <- $x21
	//DEBUG_VALUE: list_add:new <- $x21
	//DEBUG_VALUE: __list_add:new <- $x21
	//DEBUG_VALUE: blk_queue_direct_flush_register:flush_queue_node <- $x21
	.loc	2 386 30                // kernel/block/mas_blk_flush.c:386:30
	cbnz	x8, .LBB14_3
.Ltmp263:
// %bb.2:
	//DEBUG_VALUE: blk_queue_direct_flush_register:flush_queue_node <- $x21
	//DEBUG_VALUE: blk_queue_direct_flush_register:blk_lld <- $x0
	//DEBUG_VALUE: blk_queue_direct_flush_register:q <- $x19
	//DEBUG_VALUE: blk_queue_direct_flush_register:func <- $x20
	.loc	2 386 52 is_stmt 0      // kernel/block/mas_blk_flush.c:386:52
	ldr	x8, [x19, #1632]
.Ltmp264:
	.loc	2 386 6                 // kernel/block/mas_blk_flush.c:386:6
	cbz	x8, .LBB14_8
.Ltmp265:
.LBB14_3:
	//DEBUG_VALUE: blk_queue_direct_flush_register:flush_queue_node <- $x21
	//DEBUG_VALUE: blk_queue_direct_flush_register:blk_lld <- $x0
	//DEBUG_VALUE: blk_queue_direct_flush_register:q <- $x19
	//DEBUG_VALUE: blk_queue_direct_flush_register:func <- $x20
	.loc	2 389 6 is_stmt 1       // kernel/block/mas_blk_flush.c:389:6
	cbz	x20, .LBB14_9
.Ltmp266:
.LBB14_4:
	//DEBUG_VALUE: blk_queue_direct_flush_register:flush_queue_node <- $x21
	//DEBUG_VALUE: blk_queue_direct_flush_register:blk_lld <- $x0
	//DEBUG_VALUE: blk_queue_direct_flush_register:q <- $x19
	//DEBUG_VALUE: blk_queue_direct_flush_register:func <- $x20
	.loc	2 390 21                // kernel/block/mas_blk_flush.c:390:21
	str	x20, [x0, #56]
.Ltmp267:
	//DEBUG_VALUE: mas_blk_flush_reduced_queue_register:q <- $x19
	.loc	2 292 2                 // kernel/block/mas_blk_flush.c:292:2
	adrp	x20, all_flush_q_lock
.Ltmp268:
	add	x20, x20, :lo12:all_flush_q_lock
.Ltmp269:
	//DEBUG_VALUE: __write_once_size:p <- undef
	//DEBUG_VALUE: __write_once_size:res <- undef
	mov	x0, x20
.Ltmp270:
	bl	_raw_spin_lock_irqsave
.Ltmp271:
	.loc	142 79 30               // kernel/include/linux/list.h:79:30
	adrp	x8, all_flush_q_list
	add	x8, x8, :lo12:all_flush_q_list
.Ltmp272:
	//DEBUG_VALUE: list_add:head <- $x8
	ldr	x9, [x8]
	adrp	x10, all_flush_q_list
.Ltmp273:
	//DEBUG_VALUE: __list_add:next <- $x9
	//DEBUG_VALUE: __list_add:prev <- $x8
	.loc	2 292 2                 // kernel/block/mas_blk_flush.c:292:2
	mov	x1, x0
.Ltmp274:
	//DEBUG_VALUE: mas_blk_flush_reduced_queue_register:flag <- $x1
	.loc	142 63 13               // kernel/include/linux/list.h:63:13
	str	x21, [x9, #8]
	.loc	142 64 12               // kernel/include/linux/list.h:64:12
	str	x9, [x19, #1624]
	.loc	142 65 12               // kernel/include/linux/list.h:65:12
	str	x8, [x19, #1632]
.Ltmp275:
	//DEBUG_VALUE: __write_once_size:size <- 8
	.loc	140 210 31              // kernel/include/linux/compiler.h:210:31
	str	x21, [x10, :lo12:all_flush_q_list]
.Ltmp276:
.LBB14_5:
	//DEBUG_VALUE: blk_queue_direct_flush_register:flush_queue_node <- $x21
	//DEBUG_VALUE: blk_queue_direct_flush_register:q <- $x19
	//DEBUG_VALUE: spin_unlock_irqrestore:flags <- $x1
	//DEBUG_VALUE: spin_unlock_irqrestore:lock <- $x20
	.loc	2 0 0 is_stmt 0         // kernel/block/mas_blk_flush.c:0:0
	mov	x0, x20
	bl	_raw_spin_unlock_irqrestore
.Ltmp277:
	b	.LBB14_7
.Ltmp278:
.LBB14_6:
	//DEBUG_VALUE: blk_queue_direct_flush_register:func <- $x1
	//DEBUG_VALUE: blk_queue_direct_flush_register:q <- $x0
	.loc	2 380 3 is_stmt 1       // kernel/block/mas_blk_flush.c:380:3
	adrp	x0, .L.str.14
.Ltmp279:
	adrp	x1, .L__func__.blk_queue_direct_flush_register
.Ltmp280:
	add	x0, x0, :lo12:.L.str.14
	add	x1, x1, :lo12:.L__func__.blk_queue_direct_flush_register
	bl	printk
.Ltmp281:
.LBB14_7:
	.loc	2 396 1                 // kernel/block/mas_blk_flush.c:396:1
	ldp	x29, x30, [sp, #32]     // 16-byte Folded Reload
	ldp	x20, x19, [sp, #16]     // 16-byte Folded Reload
	ldr	x21, [sp], #48          // 8-byte Folded Reload
	ret
.LBB14_8:
.Ltmp282:
	//DEBUG_VALUE: blk_queue_direct_flush_register:flush_queue_node <- $x21
	//DEBUG_VALUE: blk_queue_direct_flush_register:blk_lld <- $x0
	//DEBUG_VALUE: blk_queue_direct_flush_register:q <- $x19
	//DEBUG_VALUE: blk_queue_direct_flush_register:func <- $x20
	//DEBUG_VALUE: __write_once_size:res <- undef
	//DEBUG_VALUE: __write_once_size:size <- 8
	.loc	140 210 31              // kernel/include/linux/compiler.h:210:31
	str	x21, [x19, #1624]
.Ltmp283:
	.loc	142 29 13               // kernel/include/linux/list.h:29:13
	str	x21, [x19, #1632]
.Ltmp284:
	.loc	2 389 6                 // kernel/block/mas_blk_flush.c:389:6
	cbnz	x20, .LBB14_4
.Ltmp285:
.LBB14_9:
	//DEBUG_VALUE: blk_queue_direct_flush_register:flush_queue_node <- $x21
	//DEBUG_VALUE: blk_queue_direct_flush_register:blk_lld <- $x0
	//DEBUG_VALUE: blk_queue_direct_flush_register:q <- $x19
	//DEBUG_VALUE: blk_queue_direct_flush_register:func <- $x20
	.loc	2 393 21                // kernel/block/mas_blk_flush.c:393:21
	str	xzr, [x0, #56]
.Ltmp286:
	//DEBUG_VALUE: mas_blk_flush_reduced_queue_unregister:flush_queue_node <- [DW_OP_plus_uconst 1624, DW_OP_stack_value] $x19
	//DEBUG_VALUE: mas_blk_flush_reduced_queue_unregister:mas_queue <- [DW_OP_plus_uconst 1496, DW_OP_stack_value] $x19
	//DEBUG_VALUE: mas_blk_flush_reduced_queue_unregister:q <- $x19
	.loc	2 303 17                // kernel/block/mas_blk_flush.c:303:17
	ldr	w8, [x19, #1640]
.Ltmp287:
	.loc	2 303 6 is_stmt 0       // kernel/block/mas_blk_flush.c:303:6
	cbz	w8, .LBB14_7
.Ltmp288:
// %bb.10:
	//DEBUG_VALUE: mas_blk_flush_reduced_queue_unregister:q <- $x19
	//DEBUG_VALUE: mas_blk_flush_reduced_queue_unregister:mas_queue <- [DW_OP_plus_uconst 1496, DW_OP_stack_value] $x19
	//DEBUG_VALUE: mas_blk_flush_reduced_queue_unregister:flush_queue_node <- [DW_OP_plus_uconst 1624, DW_OP_stack_value] $x19
	//DEBUG_VALUE: blk_queue_direct_flush_register:flush_queue_node <- $x21
	//DEBUG_VALUE: blk_queue_direct_flush_register:blk_lld <- $x0
	//DEBUG_VALUE: blk_queue_direct_flush_register:q <- $x19
	//DEBUG_VALUE: blk_queue_direct_flush_register:func <- $x20
	//DEBUG_VALUE: mas_blk_flush_reduced_queue_unregister:flush_queue_node <- [DW_OP_plus_uconst 1624, DW_OP_stack_value] $x19
	.loc	2 304 26 is_stmt 1      // kernel/block/mas_blk_flush.c:304:26
	ldr	x8, [x19, #1624]
	.loc	2 304 31 is_stmt 0      // kernel/block/mas_blk_flush.c:304:31
	cbz	x8, .LBB14_7
.Ltmp289:
// %bb.11:
	//DEBUG_VALUE: mas_blk_flush_reduced_queue_unregister:q <- $x19
	//DEBUG_VALUE: mas_blk_flush_reduced_queue_unregister:mas_queue <- [DW_OP_plus_uconst 1496, DW_OP_stack_value] $x19
	//DEBUG_VALUE: mas_blk_flush_reduced_queue_unregister:flush_queue_node <- [DW_OP_plus_uconst 1624, DW_OP_stack_value] $x19
	//DEBUG_VALUE: blk_queue_direct_flush_register:flush_queue_node <- $x21
	//DEBUG_VALUE: blk_queue_direct_flush_register:blk_lld <- $x0
	//DEBUG_VALUE: blk_queue_direct_flush_register:q <- $x19
	//DEBUG_VALUE: blk_queue_direct_flush_register:func <- $x20
	.loc	2 304 53                // kernel/block/mas_blk_flush.c:304:53
	ldr	x8, [x19, #1632]
.Ltmp290:
	.loc	2 304 7                 // kernel/block/mas_blk_flush.c:304:7
	cbz	x8, .LBB14_7
.Ltmp291:
// %bb.12:
	//DEBUG_VALUE: mas_blk_flush_reduced_queue_unregister:q <- $x19
	//DEBUG_VALUE: mas_blk_flush_reduced_queue_unregister:mas_queue <- [DW_OP_plus_uconst 1496, DW_OP_stack_value] $x19
	//DEBUG_VALUE: mas_blk_flush_reduced_queue_unregister:flush_queue_node <- [DW_OP_plus_uconst 1624, DW_OP_stack_value] $x19
	//DEBUG_VALUE: blk_queue_direct_flush_register:flush_queue_node <- $x21
	//DEBUG_VALUE: blk_queue_direct_flush_register:blk_lld <- $x0
	//DEBUG_VALUE: blk_queue_direct_flush_register:q <- $x19
	//DEBUG_VALUE: blk_queue_direct_flush_register:func <- $x20
	.loc	2 308 3 is_stmt 1       // kernel/block/mas_blk_flush.c:308:3
	adrp	x20, all_flush_q_lock
.Ltmp292:
	add	x20, x20, :lo12:all_flush_q_lock
	mov	x0, x20
.Ltmp293:
	bl	_raw_spin_lock_irqsave
.Ltmp294:
	.loc	142 120 20              // kernel/include/linux/list.h:120:20
	ldr	x8, [x19, #1632]
	.loc	142 120 33 is_stmt 0    // kernel/include/linux/list.h:120:33
	ldr	x9, [x19, #1624]
	mov	x10, #256
	movk	x10, #57005, lsl #48
.Ltmp295:
	.loc	2 308 3 is_stmt 1       // kernel/block/mas_blk_flush.c:308:3
	mov	x1, x0
.Ltmp296:
	//DEBUG_VALUE: __list_del_entry:entry <- [DW_OP_plus_uconst 1624, DW_OP_stack_value] $x19
	//DEBUG_VALUE: list_del:entry <- [DW_OP_plus_uconst 1624, DW_OP_stack_value] $x19
	//DEBUG_VALUE: mas_blk_flush_reduced_queue_unregister:flag <- $x1
	.loc	142 127 14              // kernel/include/linux/list.h:127:14
	add	x11, x10, #256          // =256
.Ltmp297:
	//DEBUG_VALUE: __list_del:next <- $x9
	//DEBUG_VALUE: __list_del:prev <- $x8
	.loc	142 105 13              // kernel/include/linux/list.h:105:13
	str	x8, [x9, #8]
.Ltmp298:
	//DEBUG_VALUE: __write_once_size:p <- $x8
	//DEBUG_VALUE: __write_once_size:size <- 8
	//DEBUG_VALUE: __write_once_size:res <- undef
	//DEBUG_VALUE: __list_del_entry:entry <- [DW_OP_plus_uconst 1624, DW_OP_stack_value] $x19
	.loc	140 210 31              // kernel/include/linux/compiler.h:210:31
	str	x9, [x8]
.Ltmp299:
	.loc	142 126 14              // kernel/include/linux/list.h:126:14
	str	x10, [x19, #1624]
	.loc	142 127 14              // kernel/include/linux/list.h:127:14
	str	x11, [x19, #1632]
	b	.LBB14_5
.Ltmp300:
.Lfunc_end14:
	.size	blk_queue_direct_flush_register, .Lfunc_end14-blk_queue_direct_flush_register
	.cfi_endproc
                                        // -- End function
	.section	.text.blk_queue_flush_reduce_config,"ax",@progbits
	.hidden	blk_queue_flush_reduce_config // -- Begin function blk_queue_flush_reduce_config
	.globl	blk_queue_flush_reduce_config
	.p2align	2
	.type	blk_queue_flush_reduce_config,@function
blk_queue_flush_reduce_config:          // @blk_queue_flush_reduce_config
.Lfunc_begin15:
	.loc	2 403 0                 // kernel/block/mas_blk_flush.c:403:0
	.cfi_startproc
// %bb.0:
	//DEBUG_VALUE: blk_queue_flush_reduce_config:q <- $x0
	stp	x20, x19, [sp, #-32]!   // 16-byte Folded Spill
	stp	x29, x30, [sp, #16]     // 16-byte Folded Spill
	add	x29, sp, #16            // =16
	.cfi_def_cfa w29, 16
	.cfi_offset w30, -8
	.cfi_offset w29, -16
	.cfi_offset w19, -24
	.cfi_offset w20, -32
.Ltmp301:
	//DEBUG_VALUE: blk_queue_flush_reduce_config:blk_lld <- 0
	.loc	2 406 6 prologue_end    // kernel/block/mas_blk_flush.c:406:6
	cbz	x0, .LBB15_2
.Ltmp302:
// %bb.1:
	//DEBUG_VALUE: blk_queue_flush_reduce_config:q <- $x0
	.loc	2 0 6 is_stmt 0         // kernel/block/mas_blk_flush.c:0:6
	mov	w20, w1
	mov	x19, x0
.Ltmp303:
	//DEBUG_VALUE: blk_queue_flush_reduce_config:q <- $x19
	.loc	2 411 12 is_stmt 1      // kernel/block/mas_blk_flush.c:411:12
	bl	mas_blk_get_lld
.Ltmp304:
	//DEBUG_VALUE: blk_queue_flush_reduce_config:blk_lld <- $x0
	.loc	2 0 0 is_stmt 0         // kernel/block/mas_blk_flush.c:0:0
	ldr	x8, [x0, #24]
.Ltmp305:
	.loc	2 412 6 is_stmt 1       // kernel/block/mas_blk_flush.c:412:6
	tst	w20, #0x1
	and	x9, x8, #0xfffffffffffffffb
	orr	x8, x8, #0x4
	csel	x8, x8, x9, ne
.Ltmp306:
	.loc	2 0 0 is_stmt 0         // kernel/block/mas_blk_flush.c:0:0
	str	x8, [x0, #24]
.Ltmp307:
	.loc	2 417 2 is_stmt 1       // kernel/block/mas_blk_flush.c:417:2
	mov	x0, x19
.Ltmp308:
	bl	mas_blk_queue_async_flush_init
	b	.LBB15_3
.Ltmp309:
.LBB15_2:
	//DEBUG_VALUE: blk_queue_flush_reduce_config:q <- $x0
	.loc	2 407 3                 // kernel/block/mas_blk_flush.c:407:3
	adrp	x0, .L.str.14
.Ltmp310:
	adrp	x1, .L__func__.blk_queue_flush_reduce_config
	add	x0, x0, :lo12:.L.str.14
	add	x1, x1, :lo12:.L__func__.blk_queue_flush_reduce_config
	bl	printk
.Ltmp311:
.LBB15_3:
	.loc	2 418 1                 // kernel/block/mas_blk_flush.c:418:1
	ldp	x29, x30, [sp, #16]     // 16-byte Folded Reload
	ldp	x20, x19, [sp], #32     // 16-byte Folded Reload
	ret
.Ltmp312:
.Lfunc_end15:
	.size	blk_queue_flush_reduce_config, .Lfunc_end15-blk_queue_flush_reduce_config
	.cfi_endproc
                                        // -- End function
	.section	.text.blk_mq_tagset_flush_reduce_config,"ax",@progbits
	.hidden	blk_mq_tagset_flush_reduce_config // -- Begin function blk_mq_tagset_flush_reduce_config
	.globl	blk_mq_tagset_flush_reduce_config
	.p2align	2
	.type	blk_mq_tagset_flush_reduce_config,@function
blk_mq_tagset_flush_reduce_config:      // @blk_mq_tagset_flush_reduce_config
.Lfunc_begin16:
	.loc	2 426 0                 // kernel/block/mas_blk_flush.c:426:0
	.cfi_startproc
// %bb.0:
	//DEBUG_VALUE: blk_mq_tagset_flush_reduce_config:tag_set <- $x0
	//DEBUG_VALUE: blk_mq_tagset_flush_reduce_config:tag_set <- $x0
	.loc	2 427 6 prologue_end    // kernel/block/mas_blk_flush.c:427:6
	cbz	x0, .LBB16_3
.Ltmp313:
// %bb.1:
	//DEBUG_VALUE: blk_mq_tagset_flush_reduce_config:tag_set <- $x0
	.loc	2 0 0 is_stmt 0         // kernel/block/mas_blk_flush.c:0:0
	ldr	x8, [x0, #40]
.Ltmp314:
	.loc	2 432 6 is_stmt 1       // kernel/block/mas_blk_flush.c:432:6
	tbz	w1, #0, .LBB16_4
.Ltmp315:
// %bb.2:
	//DEBUG_VALUE: blk_mq_tagset_flush_reduce_config:tag_set <- $x0
	.loc	2 433 30                // kernel/block/mas_blk_flush.c:433:30
	orr	x8, x8, #0x4
	.loc	2 0 0 is_stmt 0         // kernel/block/mas_blk_flush.c:0:0
	str	x8, [x0, #40]
.Ltmp316:
	.loc	2 436 1 is_stmt 1       // kernel/block/mas_blk_flush.c:436:1
	ret
.Ltmp317:
.LBB16_3:
	//DEBUG_VALUE: blk_mq_tagset_flush_reduce_config:tag_set <- $x0
	stp	x29, x30, [sp, #-16]!   // 16-byte Folded Spill
	mov	x29, sp
	.cfi_def_cfa w29, 16
	.cfi_offset w30, -8
	.cfi_offset w29, -16
.Ltmp318:
	.loc	2 428 3                 // kernel/block/mas_blk_flush.c:428:3
	adrp	x0, .L.str.11
.Ltmp319:
	adrp	x1, .L__func__.blk_mq_tagset_flush_reduce_config
	add	x0, x0, :lo12:.L.str.11
	add	x1, x1, :lo12:.L__func__.blk_mq_tagset_flush_reduce_config
	bl	printk
	.loc	2 429 3                 // kernel/block/mas_blk_flush.c:429:3
	ldp	x29, x30, [sp], #16     // 16-byte Folded Reload
.Ltmp320:
	.loc	2 436 1                 // kernel/block/mas_blk_flush.c:436:1
	ret
.LBB16_4:
.Ltmp321:
	//DEBUG_VALUE: blk_mq_tagset_flush_reduce_config:tag_set <- $x0
	.loc	2 435 30                // kernel/block/mas_blk_flush.c:435:30
	and	x8, x8, #0xfffffffffffffffb
	.loc	2 0 0 is_stmt 0         // kernel/block/mas_blk_flush.c:0:0
	str	x8, [x0, #40]
.Ltmp322:
	.loc	2 436 1 is_stmt 1       // kernel/block/mas_blk_flush.c:436:1
	ret
.Ltmp323:
.Lfunc_end16:
	.size	blk_mq_tagset_flush_reduce_config, .Lfunc_end16-blk_mq_tagset_flush_reduce_config
	.cfi_endproc
                                        // -- End function
	.section	.text.blk_flush_async_support,"ax",@progbits
	.hidden	blk_flush_async_support // -- Begin function blk_flush_async_support
	.globl	blk_flush_async_support
	.p2align	2
	.type	blk_flush_async_support,@function
blk_flush_async_support:                // @blk_flush_async_support
.Lfunc_begin17:
	.loc	2 442 0                 // kernel/block/mas_blk_flush.c:442:0
	.cfi_startproc
// %bb.0:
	//DEBUG_VALUE: blk_flush_async_support:bi_bdev <- $x0
	//DEBUG_VALUE: blk_flush_async_support:bi_bdev <- $x0
	//DEBUG_VALUE: blk_flush_async_support:q <- 0
	.loc	2 445 6 prologue_end    // kernel/block/mas_blk_flush.c:445:6
	cbz	x0, .LBB17_3
.Ltmp324:
// %bb.1:
	//DEBUG_VALUE: blk_flush_async_support:bi_bdev <- $x0
	//DEBUG_VALUE: bdev_get_queue:bdev <- $x0
	.loc	15 1792 15              // kernel/include/linux/blkdev.h:1792:15
	ldr	x8, [x0, #128]
	.loc	15 1792 24 is_stmt 0    // kernel/include/linux/blkdev.h:1792:24
	ldr	x8, [x8, #1016]
.Ltmp325:
	//DEBUG_VALUE: blk_flush_async_support:q <- $x8
	.loc	2 451 6 is_stmt 1       // kernel/block/mas_blk_flush.c:451:6
	cbz	x8, .LBB17_4
.Ltmp326:
// %bb.2:
	//DEBUG_VALUE: blk_flush_async_support:q <- $x8
	//DEBUG_VALUE: blk_flush_async_support:bi_bdev <- $x0
	.loc	2 452 23                // kernel/block/mas_blk_flush.c:452:23
	ldr	w0, [x8, #1640]
.Ltmp327:
	.loc	2 455 1                 // kernel/block/mas_blk_flush.c:455:1
	ret
.Ltmp328:
.LBB17_3:
	//DEBUG_VALUE: blk_flush_async_support:bi_bdev <- $x0
	stp	x29, x30, [sp, #-16]!   // 16-byte Folded Spill
	mov	x29, sp
	.cfi_def_cfa w29, 16
	.cfi_offset w30, -8
	.cfi_offset w29, -16
.Ltmp329:
	.loc	2 446 3                 // kernel/block/mas_blk_flush.c:446:3
	adrp	x0, .L.str.15
.Ltmp330:
	adrp	x1, .L__func__.blk_flush_async_support
	add	x0, x0, :lo12:.L.str.15
	add	x1, x1, :lo12:.L__func__.blk_flush_async_support
	bl	printk
.Ltmp331:
	.loc	2 0 0 is_stmt 0         // kernel/block/mas_blk_flush.c:0:0
	mov	w0, wzr
.Ltmp332:
	.loc	2 447 3 is_stmt 1       // kernel/block/mas_blk_flush.c:447:3
	ldp	x29, x30, [sp], #16     // 16-byte Folded Reload
.Ltmp333:
	.loc	2 455 1                 // kernel/block/mas_blk_flush.c:455:1
	ret
.LBB17_4:
.Ltmp334:
	//DEBUG_VALUE: blk_flush_async_support:q <- $x8
	//DEBUG_VALUE: blk_flush_async_support:bi_bdev <- $x0
	.loc	2 0 0 is_stmt 0         // kernel/block/mas_blk_flush.c:0:0
	mov	w0, wzr
.Ltmp335:
	.loc	2 455 1                 // kernel/block/mas_blk_flush.c:455:1
	ret
.Ltmp336:
.Lfunc_end17:
	.size	blk_flush_async_support, .Lfunc_end17-blk_flush_async_support
	.cfi_endproc
                                        // -- End function
	.type	.L.str,@object          // @.str
	.section	.rodata.str1.1,"aMS",@progbits,1
.L.str:
	.asciz	"\0013[BLK-IO]%s: blkdev_get fail!\n"
	.size	.L.str, 32

	.type	.L__func__.mas_blk_flush_work_fn,@object // @__func__.mas_blk_flush_work_fn
.L__func__.mas_blk_flush_work_fn:
	.asciz	"mas_blk_flush_work_fn"
	.size	.L__func__.mas_blk_flush_work_fn, 22

	.type	.L.str.1,@object        // @.str.1
.L.str.1:
	.asciz	"\0013[BLK-IO]%s: blkdev_issue_flush fail!\n"
	.size	.L.str.1, 40

	.type	blk_async_flush_workqueue,@object // @blk_async_flush_workqueue
	.section	.bss.blk_async_flush_workqueue,"aw",@nobits
	.p2align	3
blk_async_flush_workqueue:
	.xword	0
	.size	blk_async_flush_workqueue, 8

	.type	.L.str.2,@object        // @.str.2
	.section	.rodata.str1.1,"aMS",@progbits,1
.L.str.2:
	.asciz	"\0013[BLK-IO]%s: emergency = %d\n"
	.size	.L.str.2, 30

	.type	.L__func__.blk_power_off_flush,@object // @__func__.blk_power_off_flush
.L__func__.blk_power_off_flush:
	.asciz	"blk_power_off_flush"
	.size	.L__func__.blk_power_off_flush, 20

	.type	all_flush_q_lock,@object // @all_flush_q_lock
	.section	.bss.all_flush_q_lock,"aw",@nobits
	.p2align	2
all_flush_q_lock:
	.zero	4
	.size	all_flush_q_lock, 4

	.type	all_flush_q_list,@object // @all_flush_q_list
	.section	.data.all_flush_q_list,"aw",@progbits
	.p2align	3
all_flush_q_list:
	.xword	all_flush_q_list
	.xword	all_flush_q_list
	.size	all_flush_q_list, 16

	.type	.L.str.3,@object        // @.str.3
	.section	.rodata.str1.1,"aMS",@progbits,1
.L.str.3:
	.asciz	"\0013[BLK-IO]%s: emergency flush on %s\n"
	.size	.L.str.3, 37

	.type	.L.str.4,@object        // @.str.4
.L.str.4:
	.asciz	"\0013[BLK-IO]%s: emergency flush on %s done!\n"
	.size	.L.str.4, 43

	.type	.L.str.5,@object        // @.str.5
.L.str.5:
	.asciz	"\0013[BLK-IO]%s: done!\n"
	.size	.L.str.5, 21

	.type	all_object_lock,@object // @all_object_lock
	.section	.bss.all_object_lock,"aw",@nobits
	.p2align	2
all_object_lock:
	.zero	4
	.size	all_object_lock, 4

	.type	all_object_list,@object // @all_object_list
	.section	.data.all_object_list,"aw",@progbits
	.p2align	3
all_object_list:
	.xword	all_object_list
	.xword	all_object_list
	.size	all_object_list, 16

	.type	.L.str.6,@object        // @.str.6
	.section	.rodata.str1.1,"aMS",@progbits,1
.L.str.6:
	.asciz	"\0013[BLK-IO]<%s> start\n"
	.size	.L.str.6, 22

	.type	.L__func__.mas_blk_order_panic_wait_flush,@object // @__func__.mas_blk_order_panic_wait_flush
.L__func__.mas_blk_order_panic_wait_flush:
	.asciz	"mas_blk_order_panic_wait_flush"
	.size	.L__func__.mas_blk_order_panic_wait_flush, 31

	.type	.L.str.7,@object        // @.str.7
.L.str.7:
	.asciz	"\0013[BLK-IO]<%s> type = %d\n"
	.size	.L.str.7, 26

	.type	.L.str.8,@object        // @.str.8
.L.str.8:
	.asciz	"\0013[BLK-IO]<%s> normal end\n"
	.size	.L.str.8, 27

	.type	.L.str.9,@object        // @.str.9
.L.str.9:
	.asciz	"\0013[BLK-IO]<%s> timeout end\n"
	.size	.L.str.9, 28

	.type	.L__func__.mas_blk_panic_flush,@object // @__func__.mas_blk_panic_flush
.L__func__.mas_blk_panic_flush:
	.asciz	"mas_blk_panic_flush"
	.size	.L__func__.mas_blk_panic_flush, 20

	.type	__kstrtab_mas_blk_panic_flush,@object // @__kstrtab_mas_blk_panic_flush
	.section	__ksymtab_strings,"a",@progbits
__kstrtab_mas_blk_panic_flush:
	.asciz	"mas_blk_panic_flush"
	.size	__kstrtab_mas_blk_panic_flush, 20

	.type	__ksymtab_mas_blk_panic_flush,@object // @__ksymtab_mas_blk_panic_flush
	.section	"___ksymtab+mas_blk_panic_flush","a",@progbits
	.p2align	3
__ksymtab_mas_blk_panic_flush:
	.xword	mas_blk_panic_flush
	.xword	__kstrtab_mas_blk_panic_flush
	.size	__ksymtab_mas_blk_panic_flush, 16

	.type	mas_blk_poweroff_flush_nb,@object // @mas_blk_poweroff_flush_nb
	.section	.data.mas_blk_poweroff_flush_nb,"aw",@progbits
	.p2align	3
mas_blk_poweroff_flush_nb:
	.xword	__cfi_mas_blk_poweroff_flush_notifier_call
	.xword	0
	.word	0                       // 0x0
	.zero	4
	.size	mas_blk_poweroff_flush_nb, 24

	.type	__initcall_42___cfi_mas_blk_flush_init6,@object // @__initcall_42___cfi_mas_blk_flush_init6
	.section	.initcall6.init,"aw",@progbits
	.p2align	3
__initcall_42___cfi_mas_blk_flush_init6:
	.xword	__cfi_mas_blk_flush_init
	.size	__initcall_42___cfi_mas_blk_flush_init6, 8

	.type	.L.str.11,@object       // @.str.11
	.section	.rodata.str1.1,"aMS",@progbits,1
.L.str.11:
	.asciz	"\0013[BLK-IO]%s: tag_set is NULL!\n"
	.size	.L.str.11, 32

	.type	.L__func__.blk_mq_tagset_direct_flush_register,@object // @__func__.blk_mq_tagset_direct_flush_register
.L__func__.blk_mq_tagset_direct_flush_register:
	.asciz	"blk_mq_tagset_direct_flush_register"
	.size	.L__func__.blk_mq_tagset_direct_flush_register, 36

	.type	.L.str.12,@object       // @.str.12
.L.str.12:
	.asciz	"async_flush"
	.size	.L.str.12, 12

	.type	.L.str.13,@object       // @.str.13
.L.str.13:
	.asciz	"\0013[BLK-IO]%s: Failed to alloc workqueue!\n"
	.size	.L.str.13, 42

	.type	.L__func__.mas_blk_queue_async_flush_init,@object // @__func__.mas_blk_queue_async_flush_init
.L__func__.mas_blk_queue_async_flush_init:
	.asciz	"mas_blk_queue_async_flush_init"
	.size	.L__func__.mas_blk_queue_async_flush_init, 31

	.type	.L.str.14,@object       // @.str.14
.L.str.14:
	.asciz	"\0013[BLK-IO]%s: q is NULL!\n"
	.size	.L.str.14, 26

	.type	.L__func__.blk_queue_direct_flush_register,@object // @__func__.blk_queue_direct_flush_register
.L__func__.blk_queue_direct_flush_register:
	.asciz	"blk_queue_direct_flush_register"
	.size	.L__func__.blk_queue_direct_flush_register, 32

	.type	.L__func__.blk_queue_flush_reduce_config,@object // @__func__.blk_queue_flush_reduce_config
.L__func__.blk_queue_flush_reduce_config:
	.asciz	"blk_queue_flush_reduce_config"
	.size	.L__func__.blk_queue_flush_reduce_config, 30

	.type	.L__func__.blk_mq_tagset_flush_reduce_config,@object // @__func__.blk_mq_tagset_flush_reduce_config
.L__func__.blk_mq_tagset_flush_reduce_config:
	.asciz	"blk_mq_tagset_flush_reduce_config"
	.size	.L__func__.blk_mq_tagset_flush_reduce_config, 34

	.type	.L.str.15,@object       // @.str.15
.L.str.15:
	.asciz	"\0013[BLK-IO]%s: bi_bdev is NULL!\n"
	.size	.L.str.15, 32

	.type	.L__func__.blk_flush_async_support,@object // @__func__.blk_flush_async_support
.L__func__.blk_flush_async_support:
	.asciz	"blk_flush_async_support"
	.size	.L__func__.blk_flush_async_support, 24

	.type	.L__func__.mas_blk_order_poweroff_proc,@object // @__func__.mas_blk_order_poweroff_proc
.L__func__.mas_blk_order_poweroff_proc:
	.asciz	"mas_blk_order_poweroff_proc"
	.size	.L__func__.mas_blk_order_poweroff_proc, 28
